
../../boot/kernel.bin:     file format elf32-i386-freebsd

Disassembly of section .text:

00100000 <klog>:
#include "_krnl.h"
#include "bootlog.h"

void klog(char *proc, char *entry, KLOGRESULT result, console_t *vtty0)
{
  100000:	55                   	push   %ebp
  100001:	89 e5                	mov    %esp,%ebp
  100003:	57                   	push   %edi
  100004:	56                   	push   %esi
  100005:	53                   	push   %ebx
  100006:	83 ec 0c             	sub    $0xc,%esp
  100009:	8b 45 10             	mov    0x10(%ebp),%eax
  10000c:	8b 5d 14             	mov    0x14(%ebp),%ebx
	unsigned oldattrib;
	int i = 0;
  10000f:	31 f6                	xor    %esi,%esi
	int offset = 69; /* -4 for the "[  ]" part, -2 for the ": " part, -1 for space at end, and -4 for the status */
	char status[4];
	va_list args;

	args = args;
	status[0] = '\0';

	/**
	 * Save our old color attributes
	 */
	oldattrib = vtty0->attrib;
	
	if(result == K_KLOG_SUCCESS)
  100011:	85 c0                	test   %eax,%eax
  100013:	c7 45 f0 45 00 00 00 	movl   $0x45,0xfffffff0(%ebp)
  10001a:	8b 7b 18             	mov    0x18(%ebx),%edi
  10001d:	0f 84 d5 00 00 00    	je     1000f8 <LS_Phys+0xf8>
	{
		/**
		 * Successfull initialization of something.
		 * Write "..Ok" then leave
		 */
		vtty0->attrib = 8;
		printf("\b\b\b\b..");
		vtty0->attrib = 2;
		printf("Ok\n");
		vtty0->attrib = oldattrib;

		return;
	}
	else if(result == K_KLOG_FAILURE)
  100023:	83 f8 02             	cmp    $0x2,%eax
  100026:	0f 84 b8 00 00 00    	je     1000e4 <LS_Phys+0xe4>
	{
		/**
		 * Unsuccessfull initialization of something.
		 * Write "Fail" then leave
		 */
		vtty0->attrib = 4;
		printf("\b\b\b\bFail\n");
		vtty0->attrib = oldattrib;

		return;
	}

	/**
	 * FIXME
	 *
	 * Should "wrap" the line instead
	 */
	if(strlen(entry) + 8 > 80)
  10002c:	83 ec 0c             	sub    $0xc,%esp
  10002f:	ff 75 0c             	pushl  0xc(%ebp)
  100032:	e8 21 51 00 00       	call   105158 <strlen>
  100037:	83 c0 08             	add    $0x8,%eax
  10003a:	83 c4 10             	add    $0x10,%esp
  10003d:	83 f8 50             	cmp    $0x50,%eax
  100040:	76 0a                	jbe    10004c <LS_Phys+0x4c>
		return;

	vtty0->attrib = 8;
	printf("[ ");
	vtty0->attrib = 15;
	printf("%s: %s", proc, entry);
	vtty0->attrib = 8;	
	printf(" ]");

	offset -= strlen(proc);
	offset -= strlen(entry);

	for(i = 0; i < offset; i++)
		printf(".");

	vtty0->attrib = 8;
	printf("Wait");

	vtty0->attrib = oldattrib;
}
  100042:	8d 65 f4             	lea    0xfffffff4(%ebp),%esp
  100045:	5b                   	pop    %ebx
  100046:	5e                   	pop    %esi
  100047:	5f                   	pop    %edi
  100048:	c9                   	leave  
  100049:	c3                   	ret    
  10004a:	89 f6                	mov    %esi,%esi
  10004c:	83 ec 0c             	sub    $0xc,%esp
  10004f:	c7 43 18 08 00 00 00 	movl   $0x8,0x18(%ebx)
  100056:	68 b6 51 10 00       	push   $0x1051b6
  10005b:	e8 74 50 00 00       	call   1050d4 <printf>
  100060:	83 c4 0c             	add    $0xc,%esp
  100063:	c7 43 18 0f 00 00 00 	movl   $0xf,0x18(%ebx)
  10006a:	ff 75 0c             	pushl  0xc(%ebp)
  10006d:	ff 75 08             	pushl  0x8(%ebp)
  100070:	68 b9 51 10 00       	push   $0x1051b9
  100075:	e8 5a 50 00 00       	call   1050d4 <printf>
  10007a:	c7 43 18 08 00 00 00 	movl   $0x8,0x18(%ebx)
  100081:	c7 04 24 c0 51 10 00 	movl   $0x1051c0,(%esp,1)
  100088:	e8 47 50 00 00       	call   1050d4 <printf>
  10008d:	5a                   	pop    %edx
  10008e:	ff 75 08             	pushl  0x8(%ebp)
  100091:	e8 c2 50 00 00       	call   105158 <strlen>
  100096:	29 45 f0             	sub    %eax,0xfffffff0(%ebp)
  100099:	58                   	pop    %eax
  10009a:	ff 75 0c             	pushl  0xc(%ebp)
  10009d:	e8 b6 50 00 00       	call   105158 <strlen>
  1000a2:	29 45 f0             	sub    %eax,0xfffffff0(%ebp)
  1000a5:	83 c4 10             	add    $0x10,%esp
  1000a8:	3b 75 f0             	cmp    0xfffffff0(%ebp),%esi
  1000ab:	7d 16                	jge    1000c3 <LS_Phys+0xc3>
  1000ad:	8b 75 f0             	mov    0xfffffff0(%ebp),%esi
  1000b0:	83 ec 0c             	sub    $0xc,%esp
  1000b3:	68 1a 63 10 00       	push   $0x10631a
  1000b8:	e8 17 50 00 00       	call   1050d4 <printf>
  1000bd:	83 c4 10             	add    $0x10,%esp
  1000c0:	4e                   	dec    %esi
  1000c1:	75 ed                	jne    1000b0 <LS_Phys+0xb0>
  1000c3:	83 ec 0c             	sub    $0xc,%esp
  1000c6:	c7 43 18 08 00 00 00 	movl   $0x8,0x18(%ebx)
  1000cd:	68 c3 51 10 00       	push   $0x1051c3
  1000d2:	89 f6                	mov    %esi,%esi
  1000d4:	e8 fb 4f 00 00       	call   1050d4 <printf>
  1000d9:	89 7b 18             	mov    %edi,0x18(%ebx)
  1000dc:	e9 61 ff ff ff       	jmp    100042 <LS_Phys+0x42>
  1000e1:	8d 76 00             	lea    0x0(%esi),%esi
  1000e4:	83 ec 0c             	sub    $0xc,%esp
  1000e7:	c7 43 18 04 00 00 00 	movl   $0x4,0x18(%ebx)
  1000ee:	68 c8 51 10 00       	push   $0x1051c8
  1000f3:	eb df                	jmp    1000d4 <LS_Phys+0xd4>
  1000f5:	8d 76 00             	lea    0x0(%esi),%esi
  1000f8:	83 ec 0c             	sub    $0xc,%esp
  1000fb:	c7 43 18 08 00 00 00 	movl   $0x8,0x18(%ebx)
  100102:	68 d2 51 10 00       	push   $0x1051d2
  100107:	e8 c8 4f 00 00       	call   1050d4 <printf>
  10010c:	c7 43 18 02 00 00 00 	movl   $0x2,0x18(%ebx)
  100113:	c7 04 24 d9 51 10 00 	movl   $0x1051d9,(%esp,1)
  10011a:	eb b8                	jmp    1000d4 <LS_Phys+0xd4>

0010011c <dump>:
*****************************************************************************/
#define BPERL		16	/* byte/line for dump */

void dump(unsigned char *data, unsigned count)
{
  10011c:	55                   	push   %ebp
  10011d:	89 e5                	mov    %esp,%ebp
  10011f:	57                   	push   %edi
  100120:	56                   	push   %esi
  100121:	53                   	push   %ebx
  100122:	83 ec 0c             	sub    $0xc,%esp
  100125:	8b 75 0c             	mov    0xc(%ebp),%esi
	unsigned char byte1, byte2;

	while(count != 0)
  100128:	85 f6                	test   %esi,%esi
  10012a:	0f 84 86 00 00 00    	je     1001b6 <dump+0x9a>
	{
		for(byte1 = 0; byte1 < BPERL; byte1++)
  100130:	31 ff                	xor    %edi,%edi
  100132:	8b 5d 08             	mov    0x8(%ebp),%ebx
  100135:	8d 76 00             	lea    0x0(%esi),%esi
		{
			if(count == 0)
  100138:	85 f6                	test   %esi,%esi
  10013a:	74 1d                	je     100159 <dump+0x3d>
				break;
			printf("%02X ", data[byte1]);
  10013c:	83 ec 08             	sub    $0x8,%esp
  10013f:	0f b6 03             	movzbl (%ebx),%eax
  100142:	50                   	push   %eax
  100143:	68 dd 51 10 00       	push   $0x1051dd
  100148:	47                   	inc    %edi
  100149:	e8 86 4f 00 00       	call   1050d4 <printf>
  10014e:	89 f8                	mov    %edi,%eax
			count--;
  100150:	4e                   	dec    %esi
  100151:	83 c4 10             	add    $0x10,%esp
  100154:	43                   	inc    %ebx
  100155:	3c 0f                	cmp    $0xf,%al
  100157:	76 df                	jbe    100138 <dump+0x1c>
		}
		printf("\t");
  100159:	83 ec 0c             	sub    $0xc,%esp
  10015c:	68 e3 51 10 00       	push   $0x1051e3
  100161:	e8 6e 4f 00 00       	call   1050d4 <printf>
		for(byte2 = 0; byte2 < byte1; byte2++)
  100166:	31 db                	xor    %ebx,%ebx
  100168:	89 fa                	mov    %edi,%edx
  10016a:	83 c4 10             	add    $0x10,%esp
  10016d:	38 d3                	cmp    %dl,%bl
  10016f:	73 29                	jae    10019a <dump+0x7e>
  100171:	8d 76 00             	lea    0x0(%esi),%esi
		{
			if(data[byte2] < ' ')
  100174:	0f b6 c3             	movzbl %bl,%eax
  100177:	8b 55 08             	mov    0x8(%ebp),%edx
  10017a:	8a 04 10             	mov    (%eax,%edx,1),%al
  10017d:	3c 1f                	cmp    $0x1f,%al
  10017f:	77 3f                	ja     1001c0 <dump+0xa4>
				printf("%c", '.');
  100181:	83 ec 08             	sub    $0x8,%esp
  100184:	6a 2e                	push   $0x2e
  100186:	68 e5 51 10 00       	push   $0x1051e5
  10018b:	e8 44 4f 00 00       	call   1050d4 <printf>
  100190:	43                   	inc    %ebx
  100191:	89 f8                	mov    %edi,%eax
			else
				printf("%c", data[byte2]);
  100193:	83 c4 10             	add    $0x10,%esp
  100196:	38 c3                	cmp    %al,%bl
  100198:	72 da                	jb     100174 <dump+0x58>
		}
		printf("\n");
  10019a:	83 ec 0c             	sub    $0xc,%esp
  10019d:	68 f8 5a 10 00       	push   $0x105af8
  1001a2:	e8 2d 4f 00 00       	call   1050d4 <printf>
		data += BPERL;
  1001a7:	83 45 08 10          	addl   $0x10,0x8(%ebp)
  1001ab:	83 c4 10             	add    $0x10,%esp
  1001ae:	85 f6                	test   %esi,%esi
  1001b0:	0f 85 7a ff ff ff    	jne    100130 <dump+0x14>
	}
}
  1001b6:	8d 65 f4             	lea    0xfffffff4(%ebp),%esp
  1001b9:	5b                   	pop    %ebx
  1001ba:	5e                   	pop    %esi
  1001bb:	5f                   	pop    %edi
  1001bc:	c9                   	leave  
  1001bd:	c3                   	ret    
  1001be:	89 f6                	mov    %esi,%esi
  1001c0:	83 ec 08             	sub    $0x8,%esp
  1001c3:	0f b6 c0             	movzbl %al,%eax
  1001c6:	50                   	push   %eax
  1001c7:	eb bd                	jmp    100186 <dump+0x6a>
  1001c9:	8d 76 00             	lea    0x0(%esi),%esi

001001cc <dump_regs>:
/*****************************************************************************
*****************************************************************************/
void dump_regs(regs_t *regs)
{
  1001cc:	55                   	push   %ebp
  1001cd:	89 e5                	mov    %esp,%ebp
  1001cf:	53                   	push   %ebx
  1001d0:	83 ec 10             	sub    $0x10,%esp
  1001d3:	8b 5d 08             	mov    0x8(%ebp),%ebx
	printf("EDI=%08X ESI=%08X EBP=%08X ESP=%08X\n",
  1001d6:	ff 73 0c             	pushl  0xc(%ebx)
  1001d9:	ff 73 08             	pushl  0x8(%ebx)
  1001dc:	ff 73 04             	pushl  0x4(%ebx)
  1001df:	ff 33                	pushl  (%ebx)
  1001e1:	68 00 52 10 00       	push   $0x105200
  1001e6:	e8 e9 4e 00 00       	call   1050d4 <printf>
		regs->edi, regs->esi, regs->ebp, regs->esp);
	printf("EBX=%08X EDX=%08X ECX=%08X EAX=%08X\n",
  1001eb:	83 c4 14             	add    $0x14,%esp
  1001ee:	ff 73 1c             	pushl  0x1c(%ebx)
  1001f1:	ff 73 18             	pushl  0x18(%ebx)
  1001f4:	ff 73 14             	pushl  0x14(%ebx)
  1001f7:	ff 73 10             	pushl  0x10(%ebx)
  1001fa:	68 40 52 10 00       	push   $0x105240
  1001ff:	e8 d0 4e 00 00       	call   1050d4 <printf>
		regs->ebx, regs->edx, regs->ecx, regs->eax);
	printf(" DS=%08X  ES=%08X  FS=%08X  GS=%08X\n",
  100204:	83 c4 14             	add    $0x14,%esp
  100207:	ff 73 2c             	pushl  0x2c(%ebx)
  10020a:	ff 73 28             	pushl  0x28(%ebx)
  10020d:	ff 73 24             	pushl  0x24(%ebx)
  100210:	ff 73 20             	pushl  0x20(%ebx)
  100213:	68 80 52 10 00       	push   $0x105280
  100218:	e8 b7 4e 00 00       	call   1050d4 <printf>
		regs->ds, regs->es, regs->fs, regs->gs);
	printf("int=%08X err=%08X EIP=%08X  CS=%08X\n",
  10021d:	83 c4 14             	add    $0x14,%esp
  100220:	ff 73 3c             	pushl  0x3c(%ebx)
  100223:	ff 73 38             	pushl  0x38(%ebx)
  100226:	ff 73 34             	pushl  0x34(%ebx)
  100229:	ff 73 30             	pushl  0x30(%ebx)
  10022c:	68 c0 52 10 00       	push   $0x1052c0
  100231:	e8 9e 4e 00 00       	call   1050d4 <printf>
		regs->which_int, regs->err_code, regs->eip, regs->cs);
	printf("uSP=%08X uSS=%08X\n", regs->user_esp, regs->user_ss);
  100236:	83 c4 1c             	add    $0x1c,%esp
  100239:	ff 73 48             	pushl  0x48(%ebx)
  10023c:	ff 73 44             	pushl  0x44(%ebx)
  10023f:	68 e8 51 10 00       	push   $0x1051e8
  100244:	e8 8b 4e 00 00       	call   1050d4 <printf>
}
  100249:	8b 5d fc             	mov    0xfffffffc(%ebp),%ebx
  10024c:	c9                   	leave  
  10024d:	c3                   	ret    
	...

00100250 <keyDown>:
 *
 * @return	void
 */
void keyDown(unsigned key)
{
  100250:	55                   	push   %ebp
  100251:	89 e5                	mov    %esp,%ebp
	key = key; /* to shut gcc up */
}
  100253:	c9                   	leave  
  100254:	c3                   	ret    
  100255:	8d 76 00             	lea    0x0(%esi),%esi

00100258 <keyUp>:

/**
 * keyUp()
 *
 * This function is called when a key is released.
 *
 * @param	unsigned		Which key was released. See keyboard.h
 *
 * @return	void
 */
void keyUp(unsigned key)
{
  100258:	55                   	push   %ebp
  100259:	89 e5                	mov    %esp,%ebp
	key = key; /* to shut gcc up */
}
  10025b:	c9                   	leave  
  10025c:	c3                   	ret    
  10025d:	8d 76 00             	lea    0x0(%esi),%esi

00100260 <initCommands>:

void initCommands(void)
{
  100260:	55                   	push   %ebp
  100261:	89 e5                	mov    %esp,%ebp
  100263:	83 ec 10             	sub    $0x10,%esp
	eshCommands[0].minparams = 0;
	eshCommands[0].maxparams = 0;
	strcpy(eshCommands[0].command, "dumpheap\0");
  100266:	68 00 53 10 00       	push   $0x105300
  10026b:	68 48 3a 18 00       	push   $0x183a48
  100270:	c7 05 40 3a 18 00 00 	movl   $0x0,0x183a40
  100277:	00 00 00 
  10027a:	c7 05 44 3a 18 00 00 	movl   $0x0,0x183a44
  100281:	00 00 00 
  100284:	e8 b3 4e 00 00       	call   10513c <strcpy>
	strcpy(eshCommands[0].params[0], "-h\0");
  100289:	58                   	pop    %eax
  10028a:	5a                   	pop    %edx
  10028b:	68 0a 53 10 00       	push   $0x10530a
  100290:	68 48 3c 18 00       	push   $0x183c48
  100295:	e8 a2 4e 00 00       	call   10513c <strcpy>
	strcpy(eshCommands[0].description, "Print listing of heap usage and status.\0");
  10029a:	59                   	pop    %ecx
  10029b:	58                   	pop    %eax
  10029c:	68 20 53 10 00       	push   $0x105320
  1002a1:	68 48 64 18 00       	push   $0x186448
  1002a6:	e8 91 4e 00 00       	call   10513c <strcpy>

	eshCommands[1].minparams = 1;
	eshCommands[1].maxparams = MAX_PARAMS;
	strcpy(eshCommands[1].params[0], "-h\0");
  1002ab:	58                   	pop    %eax
  1002ac:	5a                   	pop    %edx
  1002ad:	68 0a 53 10 00       	push   $0x10530a
  1002b2:	68 50 68 18 00       	push   $0x186850
  1002b7:	c7 05 48 66 18 00 01 	movl   $0x1,0x186648
  1002be:	00 00 00 
  1002c1:	c7 05 4c 66 18 00 14 	movl   $0x14,0x18664c
  1002c8:	00 00 00 
  1002cb:	e8 6c 4e 00 00       	call   10513c <strcpy>
	strcpy(eshCommands[1].command, "echo\0");
  1002d0:	59                   	pop    %ecx
  1002d1:	58                   	pop    %eax
  1002d2:	68 49 53 10 00       	push   $0x105349
  1002d7:	68 50 66 18 00       	push   $0x186650
  1002dc:	e8 5b 4e 00 00       	call   10513c <strcpy>
	strcpy(eshCommands[1].description, "Echo a line of text to the terminal.\0");
  1002e1:	58                   	pop    %eax
  1002e2:	5a                   	pop    %edx
  1002e3:	68 60 53 10 00       	push   $0x105360
  1002e8:	68 50 90 18 00       	push   $0x189050
  1002ed:	e8 4a 4e 00 00       	call   10513c <strcpy>

	/*this will be called with either "help" or "help command" */
	eshCommands[2].minparams = 0;
	eshCommands[2].maxparams = 1;
	strcpy(eshCommands[2].params[0], "-h\0");
  1002f2:	59                   	pop    %ecx
  1002f3:	58                   	pop    %eax
  1002f4:	68 0a 53 10 00       	push   $0x10530a
  1002f9:	68 58 94 18 00       	push   $0x189458
  1002fe:	c7 05 50 92 18 00 00 	movl   $0x0,0x189250
  100305:	00 00 00 
  100308:	c7 05 54 92 18 00 01 	movl   $0x1,0x189254
  10030f:	00 00 00 
  100312:	e8 25 4e 00 00       	call   10513c <strcpy>
	strcpy(eshCommands[2].command, "help\0");
  100317:	58                   	pop    %eax
  100318:	5a                   	pop    %edx
  100319:	68 86 53 10 00       	push   $0x105386
  10031e:	68 58 92 18 00       	push   $0x189258
  100323:	e8 14 4e 00 00       	call   10513c <strcpy>
	strcpy(eshCommands[2].description, "Displays general help menu or help on specific command.\0");
  100328:	59                   	pop    %ecx
  100329:	58                   	pop    %eax
  10032a:	68 a0 53 10 00       	push   $0x1053a0
  10032f:	68 58 bc 18 00       	push   $0x18bc58
  100334:	e8 03 4e 00 00       	call   10513c <strcpy>

	/* -r|-h [time] */
	eshCommands[3].minparams = 1;
	eshCommands[3].maxparams = 2;
	strcpy(eshCommands[3].command, "shutdown\0");
  100339:	58                   	pop    %eax
  10033a:	5a                   	pop    %edx
  10033b:	68 d9 53 10 00       	push   $0x1053d9
  100340:	68 60 be 18 00       	push   $0x18be60
  100345:	c7 05 58 be 18 00 01 	movl   $0x1,0x18be58
  10034c:	00 00 00 
  10034f:	c7 05 5c be 18 00 02 	movl   $0x2,0x18be5c
  100356:	00 00 00 
  100359:	e8 de 4d 00 00       	call   10513c <strcpy>
	strcpy(eshCommands[3].params[0], "-r\0");
  10035e:	59                   	pop    %ecx
  10035f:	58                   	pop    %eax
  100360:	68 e3 53 10 00       	push   $0x1053e3
  100365:	68 60 c0 18 00       	push   $0x18c060
  10036a:	e8 cd 4d 00 00       	call   10513c <strcpy>
	strcpy(eshCommands[3].params[1], "-h\0");
  10036f:	58                   	pop    %eax
  100370:	5a                   	pop    %edx
  100371:	68 0a 53 10 00       	push   $0x10530a
  100376:	68 60 c2 18 00       	push   $0x18c260
  10037b:	e8 bc 4d 00 00       	call   10513c <strcpy>
	strcpy(eshCommands[3].params[2], "NOW\0");
  100380:	59                   	pop    %ecx
  100381:	58                   	pop    %eax
  100382:	68 e7 53 10 00       	push   $0x1053e7
  100387:	68 60 c4 18 00       	push   $0x18c460
  10038c:	e8 ab 4d 00 00       	call   10513c <strcpy>
	strcpy(eshCommands[3].description, "Halt or restart the system.\0");
  100391:	58                   	pop    %eax
  100392:	5a                   	pop    %edx
  100393:	68 ec 53 10 00       	push   $0x1053ec
  100398:	68 60 e8 18 00       	push   $0x18e860
  10039d:	e8 9a 4d 00 00       	call   10513c <strcpy>

	/* clear screen */
	eshCommands[4].minparams = 0;
	eshCommands[4].maxparams = 0;
	strcpy(eshCommands[4].params[0], "-h\0");
  1003a2:	59                   	pop    %ecx
  1003a3:	58                   	pop    %eax
  1003a4:	68 0a 53 10 00       	push   $0x10530a
  1003a9:	68 68 ec 18 00       	push   $0x18ec68
  1003ae:	c7 05 60 ea 18 00 00 	movl   $0x0,0x18ea60
  1003b5:	00 00 00 
  1003b8:	c7 05 64 ea 18 00 00 	movl   $0x0,0x18ea64
  1003bf:	00 00 00 
  1003c2:	e8 75 4d 00 00       	call   10513c <strcpy>
	strcpy(eshCommands[4].command, "cls\0");
  1003c7:	58                   	pop    %eax
  1003c8:	5a                   	pop    %edx
  1003c9:	68 09 54 10 00       	push   $0x105409
  1003ce:	68 68 ea 18 00       	push   $0x18ea68
  1003d3:	e8 64 4d 00 00       	call   10513c <strcpy>
	strcpy(eshCommands[4].description, "Clears the terminal of all output.\0");
  1003d8:	59                   	pop    %ecx
  1003d9:	58                   	pop    %eax
  1003da:	68 20 54 10 00       	push   $0x105420
  1003df:	68 68 14 19 00       	push   $0x191468
  1003e4:	e8 53 4d 00 00       	call   10513c <strcpy>

	/* print working directory */
	eshCommands[5].minparams = 0;
	eshCommands[5].maxparams = 0;
	strcpy(eshCommands[5].params[0], "-h\0");
  1003e9:	58                   	pop    %eax
  1003ea:	5a                   	pop    %edx
  1003eb:	68 0a 53 10 00       	push   $0x10530a
  1003f0:	68 70 18 19 00       	push   $0x191870
  1003f5:	c7 05 68 16 19 00 00 	movl   $0x0,0x191668
  1003fc:	00 00 00 
  1003ff:	c7 05 6c 16 19 00 00 	movl   $0x0,0x19166c
  100406:	00 00 00 
  100409:	e8 2e 4d 00 00       	call   10513c <strcpy>
	strcpy(eshCommands[5].command, "pwd\0");
  10040e:	59                   	pop    %ecx
  10040f:	58                   	pop    %eax
  100410:	68 44 54 10 00       	push   $0x105444
  100415:	68 70 16 19 00       	push   $0x191670
  10041a:	e8 1d 4d 00 00       	call   10513c <strcpy>
	strcpy(eshCommands[5].description, "Prints the current working directory.\0");
  10041f:	58                   	pop    %eax
  100420:	5a                   	pop    %edx
  100421:	68 60 54 10 00       	push   $0x105460
  100426:	68 70 40 19 00       	push   $0x194070
  10042b:	e8 0c 4d 00 00       	call   10513c <strcpy>
}
  100430:	c9                   	leave  
  100431:	c3                   	ret    
  100432:	89 f6                	mov    %esi,%esi

00100434 <mapCommand>:

/**
 * mapCommand()
 *
 * Used internally by esh to map a command to it's zero-based
 * index of commands.
 *
 * @param	char *	the entire line of the command
 *
 * @return	int		index of command entry if found, otherwise -1
 */
int mapCommand(char *cmd)
{
  100434:	55                   	push   %ebp
  100435:	89 e5                	mov    %esp,%ebp
  100437:	57                   	push   %edi
  100438:	56                   	push   %esi
  100439:	53                   	push   %ebx
  10043a:	81 ec 0c 02 00 00    	sub    $0x20c,%esp
  100440:	8b 75 08             	mov    0x8(%ebp),%esi
	int i;						/* for our loops */
	int params;					/* number of parameters found for the command */
	int previdx;				/* previous index */
	char cmdName[MAX_LEN];	/* name of the command */

	i = 0;
  100443:	31 db                	xor    %ebx,%ebx
  100445:	8d 76 00             	lea    0x0(%esi),%esi
	previdx = 0;
	params = 0;

	/**
	 * Loop while cmd[i] is not a space
	 */
	i = 0;
	for(i = 0; i < (int)strlen(cmd); i++)
  100448:	83 ec 0c             	sub    $0xc,%esp
  10044b:	56                   	push   %esi
  10044c:	e8 07 4d 00 00       	call   105158 <strlen>
  100451:	83 c4 10             	add    $0x10,%esp
  100454:	39 c3                	cmp    %eax,%ebx
  100456:	7d 09                	jge    100461 <mapCommand+0x2d>
	{
		if(cmd[i] == ' ')
  100458:	80 3c 33 20          	cmpb   $0x20,(%ebx,%esi,1)
  10045c:	74 03                	je     100461 <mapCommand+0x2d>
  10045e:	43                   	inc    %ebx
  10045f:	eb e7                	jmp    100448 <mapCommand+0x14>
			break;
	}

	strncpy(cmdName, cmd, i);
  100461:	51                   	push   %ecx
  100462:	53                   	push   %ebx
  100463:	56                   	push   %esi
  100464:	8d bd e8 fd ff ff    	lea    0xfffffde8(%ebp),%edi
  10046a:	57                   	push   %edi
  10046b:	e8 04 4d 00 00       	call   105174 <strncpy>
	cmdName[i] = '\0';

	for(i = 0; i < COMMAND_COUNT; i++)
  100470:	be 48 3a 18 00       	mov    $0x183a48,%esi
  100475:	c6 84 2b e8 fd ff ff 	movb   $0x0,0xfffffde8(%ebx,%ebp,1)
  10047c:	00 
  10047d:	83 c4 10             	add    $0x10,%esp
  100480:	31 db                	xor    %ebx,%ebx
  100482:	89 f6                	mov    %esi,%esi
	{
		if(!strcmp(eshCommands[i].command, cmdName))
  100484:	83 ec 08             	sub    $0x8,%esp
  100487:	57                   	push   %edi
  100488:	56                   	push   %esi
  100489:	e8 62 4c 00 00       	call   1050f0 <strcmp>
  10048e:	83 c4 10             	add    $0x10,%esp
  100491:	85 c0                	test   %eax,%eax
  100493:	89 da                	mov    %ebx,%edx
  100495:	74 11                	je     1004a8 <mapCommand+0x74>
  100497:	43                   	inc    %ebx
  100498:	81 c6 08 2c 00 00    	add    $0x2c08,%esi
  10049e:	83 fb 05             	cmp    $0x5,%ebx
  1004a1:	7e e1                	jle    100484 <mapCommand+0x50>
			return i;
	}

	return -1;
  1004a3:	ba ff ff ff ff       	mov    $0xffffffff,%edx
}
  1004a8:	8d 65 f4             	lea    0xfffffff4(%ebp),%esp
  1004ab:	5b                   	pop    %ebx
  1004ac:	5e                   	pop    %esi
  1004ad:	89 d0                	mov    %edx,%eax
  1004af:	5f                   	pop    %edi
  1004b0:	c9                   	leave  
  1004b1:	c3                   	ret    
  1004b2:	89 f6                	mov    %esi,%esi

001004b4 <isParam>:

/**
 * isParam()
 *
 * Determines if the supplied parameter is valid for the
 * given command.
 *
 * @param	int		index of command
 * @param	char *	command string
 *
 * @return	bool		true if parameter is valid, false otherwise
 */
bool isParam(int argc, char *argv)
{
  1004b4:	55                   	push   %ebp
  1004b5:	89 e5                	mov    %esp,%ebp
  1004b7:	57                   	push   %edi
  1004b8:	56                   	push   %esi
  1004b9:	53                   	push   %ebx
  1004ba:	83 ec 0c             	sub    $0xc,%esp
  1004bd:	8b 55 08             	mov    0x8(%ebp),%edx
	int i;

	for(i = 0; i < MAX_PARAMS; i++)
  1004c0:	8d 04 92             	lea    (%edx,%edx,4),%eax
  1004c3:	8d 04 42             	lea    (%edx,%eax,2),%eax
  1004c6:	c1 e0 07             	shl    $0x7,%eax
  1004c9:	01 d0                	add    %edx,%eax
  1004cb:	8b 7d 0c             	mov    0xc(%ebp),%edi
  1004ce:	31 f6                	xor    %esi,%esi
  1004d0:	8d 1c c5 48 3c 18 00 	lea    0x183c48(,%eax,8),%ebx
  1004d7:	90                   	nop    
	{
		if(!strcmp(eshCommands[argc].params[i], argv))
  1004d8:	83 ec 08             	sub    $0x8,%esp
  1004db:	57                   	push   %edi
  1004dc:	53                   	push   %ebx
  1004dd:	e8 0e 4c 00 00       	call   1050f0 <strcmp>
  1004e2:	83 c4 10             	add    $0x10,%esp
  1004e5:	85 c0                	test   %eax,%eax
  1004e7:	ba 01 00 00 00       	mov    $0x1,%edx
  1004ec:	74 0e                	je     1004fc <isParam+0x48>
  1004ee:	46                   	inc    %esi
  1004ef:	81 c3 00 02 00 00    	add    $0x200,%ebx
  1004f5:	83 fe 13             	cmp    $0x13,%esi
  1004f8:	7e de                	jle    1004d8 <isParam+0x24>
			return true;
	}

	return false;
  1004fa:	31 d2                	xor    %edx,%edx
}
  1004fc:	8d 65 f4             	lea    0xfffffff4(%ebp),%esp
  1004ff:	5b                   	pop    %ebx
  100500:	5e                   	pop    %esi
  100501:	89 d0                	mov    %edx,%eax
  100503:	5f                   	pop    %edi
  100504:	c9                   	leave  
  100505:	c3                   	ret    
  100506:	89 f6                	mov    %esi,%esi

00100508 <mapParams>:

/**
 * mapParams()
 *
 * Maps each parameter to the pars struct
 *
 * @param	char *	Buffer from the command line
 * @param	struct	Parameter structure
 *
 * @return	int		Number of command line parameters (arguments) parsed
 */
int mapParams(char *buf, ESHCURRCOMMAND *pars)
{
  100508:	55                   	push   %ebp
  100509:	89 e5                	mov    %esp,%ebp
  10050b:	57                   	push   %edi
  10050c:	56                   	push   %esi
  10050d:	53                   	push   %ebx
  10050e:	83 ec 18             	sub    $0x18,%esp
  100511:	8b 7d 08             	mov    0x8(%ebp),%edi
	int i;						/* for our loops */
	int previdx;				/* previous index */
	int idx;						/* current index */
	int j;						/* loops */

	i = 0;
	j = 0;
	previdx = 0;
	pars->count = 0;
  100514:	8b 45 0c             	mov    0xc(%ebp),%eax
  100517:	c7 00 00 00 00 00    	movl   $0x0,(%eax)

	previdx = mapCommand(buf);
  10051d:	57                   	push   %edi
  10051e:	e8 11 ff ff ff       	call   100434 <mapCommand>
  100523:	89 c2                	mov    %eax,%edx
  100525:	31 f6                	xor    %esi,%esi

	if(previdx == -1)
  100527:	83 c4 10             	add    $0x10,%esp
  10052a:	31 c0                	xor    %eax,%eax
  10052c:	83 fa ff             	cmp    $0xffffffff,%edx
  10052f:	0f 84 0d 01 00 00    	je     100642 <mapParams+0x13a>
		return 0;

	strcpy(pars->param[0], eshCommands[previdx].command);
  100535:	8d 04 92             	lea    (%edx,%edx,4),%eax
  100538:	8d 04 42             	lea    (%edx,%eax,2),%eax
  10053b:	c1 e0 07             	shl    $0x7,%eax
  10053e:	01 d0                	add    %edx,%eax
  100540:	83 ec 08             	sub    $0x8,%esp
  100543:	8d 04 c5 48 3a 18 00 	lea    0x183a48(,%eax,8),%eax
  10054a:	50                   	push   %eax
  10054b:	8b 45 0c             	mov    0xc(%ebp),%eax
  10054e:	83 c0 04             	add    $0x4,%eax
  100551:	50                   	push   %eax
  100552:	e8 e5 4b 00 00       	call   10513c <strcpy>
	j++;
	pars->count++;
  100557:	8b 55 0c             	mov    0xc(%ebp),%edx
  10055a:	ff 02                	incl   (%edx)

	i = 0;
	idx = 0;

	for(i = 0; i < (int)strlen(buf); i++)
  10055c:	83 c4 10             	add    $0x10,%esp
  10055f:	81 c2 00 02 00 00    	add    $0x200,%edx
  100565:	c7 45 ec 01 00 00 00 	movl   $0x1,0xffffffec(%ebp)
  10056c:	89 55 e8             	mov    %edx,0xffffffe8(%ebp)
  10056f:	90                   	nop    
  100570:	83 ec 0c             	sub    $0xc,%esp
  100573:	57                   	push   %edi
  100574:	e8 df 4b 00 00       	call   105158 <strlen>
  100579:	83 c4 10             	add    $0x10,%esp
  10057c:	39 c6                	cmp    %eax,%esi
  10057e:	0f 8d b9 00 00 00    	jge    10063d <mapParams+0x135>
	{
		/* we have encountered a seperator */
		if(buf[i] == ' ')
  100584:	80 3c 3e 20          	cmpb   $0x20,(%esi,%edi,1)
  100588:	74 06                	je     100590 <mapParams+0x88>
  10058a:	46                   	inc    %esi
  10058b:	eb e3                	jmp    100570 <mapParams+0x68>
  10058d:	8d 76 00             	lea    0x0(%esi),%esi
		{
			if(j > MAX_PARAMS)
  100590:	83 7d ec 14          	cmpl   $0x14,0xffffffec(%ebp)
  100594:	0f 8f a3 00 00 00    	jg     10063d <mapParams+0x135>
				break;
			
			i++; /* skip one space */
  10059a:	46                   	inc    %esi

			idx = i;
  10059b:	89 75 f0             	mov    %esi,0xfffffff0(%ebp)

			if(buf[i] == '"')
  10059e:	8a 04 3e             	mov    (%esi,%edi,1),%al
  1005a1:	3c 22                	cmp    $0x22,%al
  1005a3:	74 57                	je     1005fc <mapParams+0xf4>
  1005a5:	8d 76 00             	lea    0x0(%esi),%esi
  1005a8:	3c 20                	cmp    $0x20,%al
  1005aa:	74 16                	je     1005c2 <mapParams+0xba>
  1005ac:	83 ec 0c             	sub    $0xc,%esp
  1005af:	57                   	push   %edi
  1005b0:	e8 a3 4b 00 00       	call   105158 <strlen>
  1005b5:	83 c4 10             	add    $0x10,%esp
  1005b8:	39 c6                	cmp    %eax,%esi
  1005ba:	74 06                	je     1005c2 <mapParams+0xba>
			{
				i++;
				idx++;

				while(buf[i] != '"' && i != (int)strlen(buf))
					i++;

				strncpy(pars->param[j], &buf[idx], (i - idx));
				pars->param[j][i - idx] = '\0';

				idx = i;
				j++;
				pars->count++;
			}
			else
			{
				while(buf[i] != ' ' && i != (int)strlen(buf))
					i++;
  1005bc:	46                   	inc    %esi
  1005bd:	8a 04 3e             	mov    (%esi,%edi,1),%al
  1005c0:	eb e6                	jmp    1005a8 <mapParams+0xa0>
			
				strncpy(pars->param[j], &buf[idx], i - idx);
  1005c2:	53                   	push   %ebx
  1005c3:	89 f3                	mov    %esi,%ebx
  1005c5:	2b 5d f0             	sub    0xfffffff0(%ebp),%ebx
  1005c8:	8b 55 f0             	mov    0xfffffff0(%ebp),%edx
  1005cb:	53                   	push   %ebx
  1005cc:	8d 04 3a             	lea    (%edx,%edi,1),%eax
  1005cf:	50                   	push   %eax
  1005d0:	8b 45 e8             	mov    0xffffffe8(%ebp),%eax
  1005d3:	83 c0 04             	add    $0x4,%eax
  1005d6:	50                   	push   %eax
  1005d7:	e8 98 4b 00 00       	call   105174 <strncpy>
				pars->param[j][i - idx] = '\0';
  1005dc:	8b 45 e8             	mov    0xffffffe8(%ebp),%eax
  1005df:	c6 44 03 04 00       	movb   $0x0,0x4(%ebx,%eax,1)
				i = idx;
  1005e4:	8b 75 f0             	mov    0xfffffff0(%ebp),%esi
				j++;
  1005e7:	05 00 02 00 00       	add    $0x200,%eax
				pars->count++;
  1005ec:	8b 55 0c             	mov    0xc(%ebp),%edx
  1005ef:	ff 45 ec             	incl   0xffffffec(%ebp)
  1005f2:	89 45 e8             	mov    %eax,0xffffffe8(%ebp)
  1005f5:	ff 02                	incl   (%edx)
  1005f7:	83 c4 10             	add    $0x10,%esp
  1005fa:	eb 8e                	jmp    10058a <mapParams+0x82>
  1005fc:	46                   	inc    %esi
  1005fd:	ff 45 f0             	incl   0xfffffff0(%ebp)
  100600:	80 3c 3e 22          	cmpb   $0x22,(%esi,%edi,1)
  100604:	74 13                	je     100619 <mapParams+0x111>
  100606:	83 ec 0c             	sub    $0xc,%esp
  100609:	57                   	push   %edi
  10060a:	e8 49 4b 00 00       	call   105158 <strlen>
  10060f:	83 c4 10             	add    $0x10,%esp
  100612:	39 c6                	cmp    %eax,%esi
  100614:	74 03                	je     100619 <mapParams+0x111>
  100616:	46                   	inc    %esi
  100617:	eb e7                	jmp    100600 <mapParams+0xf8>
  100619:	89 f3                	mov    %esi,%ebx
  10061b:	2b 5d f0             	sub    0xfffffff0(%ebp),%ebx
  10061e:	8b 55 f0             	mov    0xfffffff0(%ebp),%edx
  100621:	50                   	push   %eax
  100622:	53                   	push   %ebx
  100623:	8d 04 3a             	lea    (%edx,%edi,1),%eax
  100626:	50                   	push   %eax
  100627:	8b 45 e8             	mov    0xffffffe8(%ebp),%eax
  10062a:	83 c0 04             	add    $0x4,%eax
  10062d:	50                   	push   %eax
  10062e:	e8 41 4b 00 00       	call   105174 <strncpy>
  100633:	8b 45 e8             	mov    0xffffffe8(%ebp),%eax
  100636:	c6 44 03 04 00       	movb   $0x0,0x4(%ebx,%eax,1)
  10063b:	eb aa                	jmp    1005e7 <mapParams+0xdf>
			}
		}
	}
	
	return pars->count;
  10063d:	8b 55 0c             	mov    0xc(%ebp),%edx
  100640:	8b 02                	mov    (%edx),%eax
}
  100642:	8d 65 f4             	lea    0xfffffff4(%ebp),%esp
  100645:	5b                   	pop    %ebx
  100646:	5e                   	pop    %esi
  100647:	5f                   	pop    %edi
  100648:	c9                   	leave  
  100649:	c3                   	ret    
  10064a:	89 f6                	mov    %esi,%esi

0010064c <processCommand>:

/**
 * processCommand()
 *
 * This function is called when the user has pressed
 * the ENTER key.
 *
 * @param	char *	The contents of the current buffer or NULL if empty
 * @param	int		Size of the buffer (number of characters)
 *
 * @return	void
 */
void processCommand(char *line, int count)
{
  10064c:	55                   	push   %ebp
  10064d:	89 e5                	mov    %esp,%ebp
  10064f:	57                   	push   %edi
  100650:	56                   	push   %esi
  100651:	53                   	push   %ebx
  100652:	81 ec 1c 50 00 00    	sub    $0x501c,%esp
  100658:	8b 75 08             	mov    0x8(%ebp),%esi
	int i;
	int cmd;		/* stores the numeric index of the command */
	ESHCURRCOMMAND params;

	count = count; /* to shut gcc up */

	/*for(i = 0; i < MAX_PARAMS; i++)
		params.param[i][0] = '\0';*/
	params.param[0][0] = '\0';
  10065b:	c6 85 dc af ff ff 00 	movb   $0x0,0xffffafdc(%ebp)
	
	initCommands();
  100662:	e8 f9 fb ff ff       	call   100260 <initCommands>

	cmd = mapCommand(line);
  100667:	83 ec 0c             	sub    $0xc,%esp
  10066a:	56                   	push   %esi
  10066b:	e8 c4 fd ff ff       	call   100434 <mapCommand>
	mapParams(line, &params);
  100670:	5f                   	pop    %edi
  100671:	89 c3                	mov    %eax,%ebx
  100673:	8d bd d8 af ff ff    	lea    0xffffafd8(%ebp),%edi
  100679:	58                   	pop    %eax
  10067a:	57                   	push   %edi
  10067b:	56                   	push   %esi
  10067c:	e8 87 fe ff ff       	call   100508 <mapParams>

	switch(cmd)
  100681:	83 c4 10             	add    $0x10,%esp
  100684:	83 fb 01             	cmp    $0x1,%ebx
  100687:	0f 84 13 01 00 00    	je     1007a0 <processCommand+0x154>
  10068d:	83 fb 01             	cmp    $0x1,%ebx
  100690:	0f 8e f6 00 00 00    	jle    10078c <processCommand+0x140>
  100696:	83 fb 02             	cmp    $0x2,%ebx
  100699:	74 4a                	je     1006e5 <processCommand+0x99>
	{
		case 0:	/* dumpheap */
			dumpheapk();
			//testheap();
			break;
		case 1:	/* echo */
			for(i = 1; i < params.count; i++)
				printf("%s", params.param[i]);

			printf("\n");
			break;
		case 2:	/* help */
			if(params.count == 1)
			{
				printf("HybOS EShell Commands:\n");
				for(i = 0; i < COMMAND_COUNT; i++)
					if(strlen(eshCommands[i].command) > 0)
						printf("%10s %-s\n", eshCommands[i].command, eshCommands[i].description);
			}
			else
			{
				cmd = mapCommand(params.param[0]);
				mapParams(params.param[1], &params);
				
				//if(isParam(cmd, params.param[1]))
				if(cmd != -1)
				{
					printf("Usage: %s %s\n", params.param[0], eshCommands[cmd].params[1]);
				}
				else
					printf("esh: '%s' not found.\n", params.param[1]);
			}
			break;
		default:
			if(strlen(params.param[0]) > 0 && strcmp(params.param[0], "help"))
  10069b:	83 ec 0c             	sub    $0xc,%esp
  10069e:	8d 9d dc af ff ff    	lea    0xffffafdc(%ebp),%ebx
  1006a4:	53                   	push   %ebx
  1006a5:	e8 ae 4a 00 00       	call   105158 <strlen>
  1006aa:	83 c4 10             	add    $0x10,%esp
  1006ad:	85 c0                	test   %eax,%eax
  1006af:	74 15                	je     1006c6 <processCommand+0x7a>
  1006b1:	83 ec 08             	sub    $0x8,%esp
  1006b4:	68 87 54 10 00       	push   $0x105487
  1006b9:	53                   	push   %ebx
  1006ba:	e8 31 4a 00 00       	call   1050f0 <strcmp>
  1006bf:	83 c4 10             	add    $0x10,%esp
  1006c2:	85 c0                	test   %eax,%eax
  1006c4:	75 19                	jne    1006df <processCommand+0x93>
				printf("esh: '%s' not found.\n", params.param[0]);
			else
				printf("esh: '%s' not found.\n", &line[0]);
  1006c6:	83 ec 08             	sub    $0x8,%esp
  1006c9:	56                   	push   %esi
  1006ca:	68 8c 54 10 00       	push   $0x10548c
  1006cf:	e8 00 4a 00 00       	call   1050d4 <printf>
  1006d4:	83 c4 10             	add    $0x10,%esp
			break;
	}

	/*for(i = 0; i < params.count; i++)
		printf("param[%i]: %s\n", i, params.param[i]);*/

	//if(isParam(3, &params.param[1]))
	//	printf("valid parameter\n");
	//else
	//	printf("invalid parameter\n");

	return;

	if(!strcmp(line, "dumpheap"))
		dumpheapk();
	else if(!strncmp(line, "echo", 4))
		printf("%s\n", line[4] == ' ' ? &line[5] : &line[4]);
	else if(!strcmp(line, "help"))
	{
		printf("HybOS EShell Commands:\n");
		printf("dumpheap\tPrint listing of heap usage and status\n");
		printf("testheap\tTest the heap and print out results\n");
		printf("shutdown -r\tRestart the system.\n");
		printf("pwd\t\tPrint the current working directory.\n");
	}
	else if(!strncmp(line, "shutdown", 8))
	{
		if(strlen(line) > 9 && !strncmp(&line[9], "-r", 2))
		{
			printf("\nSystem shutdown from vtty%u\n", get_current_vc());
			printf("Restarting...");
			//reboot();
		}
		else
		{
			if((strlen(line) > 9) && (strlen(&line[9]) > 0))
				printf("shutdown: Invalid argument \"%s\".\n", &line[9]);
			else
				printf("Usage: shutdown -r\n");
		}
	}
	else if((strlen(line) > 0) && (!strcmp(line, "cls")))
	{
		printf("\x1B[2J");
	}
	else if((strlen(line) >= 8) && (!strcmp(line, "testheap")))
	{
		//testheap();
	}
	else if((strlen(line) > 0) && (!strcmp(line, "pwd")))
		printf("/\n");
	else if(strlen(line) > 0)
		printf("eshell: \"%s\" not found.\n", line);
}
  1006d7:	8d 65 f4             	lea    0xfffffff4(%ebp),%esp
  1006da:	5b                   	pop    %ebx
  1006db:	5e                   	pop    %esi
  1006dc:	5f                   	pop    %edi
  1006dd:	c9                   	leave  
  1006de:	c3                   	ret    
  1006df:	83 ec 08             	sub    $0x8,%esp
  1006e2:	53                   	push   %ebx
  1006e3:	eb e5                	jmp    1006ca <processCommand+0x7e>
  1006e5:	83 bd d8 af ff ff 01 	cmpl   $0x1,0xffffafd8(%ebp)
  1006ec:	74 4a                	je     100738 <processCommand+0xec>
  1006ee:	83 ec 0c             	sub    $0xc,%esp
  1006f1:	8d 85 dc af ff ff    	lea    0xffffafdc(%ebp),%eax
  1006f7:	50                   	push   %eax
  1006f8:	e8 37 fd ff ff       	call   100434 <mapCommand>
  1006fd:	89 c3                	mov    %eax,%ebx
  1006ff:	58                   	pop    %eax
  100700:	5a                   	pop    %edx
  100701:	57                   	push   %edi
  100702:	8d b5 dc b1 ff ff    	lea    0xffffb1dc(%ebp),%esi
  100708:	56                   	push   %esi
  100709:	e8 fa fd ff ff       	call   100508 <mapParams>
  10070e:	83 c4 10             	add    $0x10,%esp
  100711:	83 fb ff             	cmp    $0xffffffff,%ebx
  100714:	74 b0                	je     1006c6 <processCommand+0x7a>
  100716:	50                   	push   %eax
  100717:	8d 04 9b             	lea    (%ebx,%ebx,4),%eax
  10071a:	8d 04 43             	lea    (%ebx,%eax,2),%eax
  10071d:	c1 e0 07             	shl    $0x7,%eax
  100720:	01 d8                	add    %ebx,%eax
  100722:	8d 04 c5 48 3e 18 00 	lea    0x183e48(,%eax,8),%eax
  100729:	50                   	push   %eax
  10072a:	8d 85 dc af ff ff    	lea    0xffffafdc(%ebp),%eax
  100730:	50                   	push   %eax
  100731:	68 a2 54 10 00       	push   $0x1054a2
  100736:	eb 97                	jmp    1006cf <processCommand+0x83>
  100738:	83 ec 0c             	sub    $0xc,%esp
  10073b:	68 b0 54 10 00       	push   $0x1054b0
  100740:	e8 8f 49 00 00       	call   1050d4 <printf>
  100745:	31 ff                	xor    %edi,%edi
  100747:	83 c4 10             	add    $0x10,%esp
  10074a:	be 05 00 00 00       	mov    $0x5,%esi
  10074f:	90                   	nop    
  100750:	83 ec 0c             	sub    $0xc,%esp
  100753:	8d 9f 48 3a 18 00    	lea    0x183a48(%edi),%ebx
  100759:	53                   	push   %ebx
  10075a:	e8 f9 49 00 00       	call   105158 <strlen>
  10075f:	83 c4 10             	add    $0x10,%esp
  100762:	85 c0                	test   %eax,%eax
  100764:	75 0e                	jne    100774 <processCommand+0x128>
  100766:	81 c7 08 2c 00 00    	add    $0x2c08,%edi
  10076c:	4e                   	dec    %esi
  10076d:	79 e1                	jns    100750 <processCommand+0x104>
  10076f:	e9 63 ff ff ff       	jmp    1006d7 <processCommand+0x8b>
  100774:	8d 87 48 64 18 00    	lea    0x186448(%edi),%eax
  10077a:	51                   	push   %ecx
  10077b:	50                   	push   %eax
  10077c:	53                   	push   %ebx
  10077d:	68 c8 54 10 00       	push   $0x1054c8
  100782:	e8 4d 49 00 00       	call   1050d4 <printf>
  100787:	83 c4 10             	add    $0x10,%esp
  10078a:	eb da                	jmp    100766 <processCommand+0x11a>
  10078c:	85 db                	test   %ebx,%ebx
  10078e:	0f 85 07 ff ff ff    	jne    10069b <processCommand+0x4f>
  100794:	e8 83 38 00 00       	call   10401c <dumpheapk>
  100799:	e9 39 ff ff ff       	jmp    1006d7 <processCommand+0x8b>
  10079e:	89 f6                	mov    %esi,%esi
  1007a0:	3b 9d d8 af ff ff    	cmp    0xffffafd8(%ebp),%ebx
  1007a6:	be 01 00 00 00       	mov    $0x1,%esi
  1007ab:	7d 27                	jge    1007d4 <processCommand+0x188>
  1007ad:	8d 9d dc b1 ff ff    	lea    0xffffb1dc(%ebp),%ebx
  1007b3:	90                   	nop    
  1007b4:	83 ec 08             	sub    $0x8,%esp
  1007b7:	53                   	push   %ebx
  1007b8:	68 bd 51 10 00       	push   $0x1051bd
  1007bd:	46                   	inc    %esi
  1007be:	e8 11 49 00 00       	call   1050d4 <printf>
  1007c3:	81 c3 00 02 00 00    	add    $0x200,%ebx
  1007c9:	83 c4 10             	add    $0x10,%esp
  1007cc:	3b b5 d8 af ff ff    	cmp    0xffffafd8(%ebp),%esi
  1007d2:	7c e0                	jl     1007b4 <processCommand+0x168>
  1007d4:	83 ec 0c             	sub    $0xc,%esp
  1007d7:	68 f8 5a 10 00       	push   $0x105af8
  1007dc:	e9 ee fe ff ff       	jmp    1006cf <processCommand+0x83>
  1007e1:	00 00                	add    %al,(%eax)
	...

001007e4 <reboot>:
 * reboot()
 *
 */
static void reboot(void)
{
  1007e4:	55                   	push   %ebp
  1007e5:	89 e5                	mov    %esp,%ebp
  1007e7:	53                   	push   %ebx
  1007e8:	50                   	push   %eax
	unsigned temp;

	disable();
  1007e9:	e8 da 44 00 00       	call   104cc8 <disable>

	/**
	 * flush the keyboard controller
	 */
	do
	{
		temp = inportb(0x64);
  1007ee:	83 ec 0c             	sub    $0xc,%esp
  1007f1:	6a 64                	push   $0x64
  1007f3:	e8 1c 48 00 00       	call   105014 <inportb>
		if((temp & 0x01) != 0)
  1007f8:	83 c4 10             	add    $0x10,%esp
  1007fb:	a8 01                	test   $0x1,%al
  1007fd:	89 c3                	mov    %eax,%ebx
  1007ff:	75 19                	jne    10081a <reboot+0x36>
		{
			(void)inportb(0x60);
			continue;
		}
	} while((temp & 0x02) != 0);
  100801:	83 e3 02             	and    $0x2,%ebx
  100804:	75 e8                	jne    1007ee <reboot+0xa>

	/**
	 * now pulse the cpu reset line
	 */
	outportb(0x64, 0xFE);
  100806:	83 ec 08             	sub    $0x8,%esp
  100809:	68 fe 00 00 00       	push   $0xfe
  10080e:	6a 64                	push   $0x64
  100810:	e8 9f 48 00 00       	call   1050b4 <outportb>

	/**
	 * if that didn't work, just halt
	 */
	while(1);
  100815:	83 c4 10             	add    $0x10,%esp
  100818:	eb fe                	jmp    100818 <reboot+0x34>
  10081a:	83 ec 0c             	sub    $0xc,%esp
  10081d:	6a 60                	push   $0x60
  10081f:	e8 f0 47 00 00       	call   105014 <inportb>
  100824:	83 c4 10             	add    $0x10,%esp
  100827:	eb d8                	jmp    100801 <reboot+0x1d>
  100829:	8d 76 00             	lea    0x0(%esi),%esi

0010082c <_write_kb>:
}

/**
 * XXX
 *
 * I'm not even sure if we need the following functions yet,
 * however they are here just in case. Leave them alone.
 */

/**
 * _write_kb()
 * 
 */
static void _write_kb(unsigned adr, unsigned d)
{
  10082c:	55                   	push   %ebp
  10082d:	89 e5                	mov    %esp,%ebp
  10082f:	57                   	push   %edi
  100830:	56                   	push   %esi
  100831:	53                   	push   %ebx
  100832:	83 ec 0c             	sub    $0xc,%esp
  100835:	8b 7d 08             	mov    0x8(%ebp),%edi
  100838:	8b 75 0c             	mov    0xc(%ebp),%esi
	unsigned long t;
	unsigned s;

	for(t = 5000000L; t != 0; t--)
  10083b:	bb 40 4b 4c 00       	mov    $0x4c4b40,%ebx
	{
		s = inportb(0x64);
  100840:	83 ec 0c             	sub    $0xc,%esp
  100843:	6a 64                	push   $0x64
  100845:	e8 ca 47 00 00       	call   105014 <inportb>

		/**
		 * loop until 8042 input buffer is empty
		 */
		if((s & 0x02) == 0)
  10084a:	83 c4 10             	add    $0x10,%esp
  10084d:	a8 02                	test   $0x2,%al
  10084f:	74 0b                	je     10085c <_write_kb+0x30>
  100851:	4b                   	dec    %ebx
  100852:	75 ec                	jne    100840 <_write_kb+0x14>
			break;
	}

	if(t != 0)
		outportb(adr, d);
}
  100854:	8d 65 f4             	lea    0xfffffff4(%ebp),%esp
  100857:	5b                   	pop    %ebx
  100858:	5e                   	pop    %esi
  100859:	5f                   	pop    %edi
  10085a:	c9                   	leave  
  10085b:	c3                   	ret    
  10085c:	85 db                	test   %ebx,%ebx
  10085e:	74 f4                	je     100854 <_write_kb+0x28>
  100860:	89 75 0c             	mov    %esi,0xc(%ebp)
  100863:	89 7d 08             	mov    %edi,0x8(%ebp)
  100866:	8d 65 f4             	lea    0xfffffff4(%ebp),%esp
  100869:	5b                   	pop    %ebx
  10086a:	5e                   	pop    %esi
  10086b:	5f                   	pop    %edi
  10086c:	c9                   	leave  
  10086d:	e9 42 48 00 00       	jmp    1050b4 <outportb>
  100872:	89 f6                	mov    %esi,%esi

00100874 <_translate_sc>:

/**
 * _kb_wait()
 *
 */
static inline void _kb_wait(void)
{
	int i;

	for(i = 0; i < 0x1000000; i++)
		if((inportb(0x64) & 0x02) == 0)
			return;

	printk(0, "Keyboard timeout\n");
}

/**
 * _kb_send()
 *
 */
static inline void _kb_send(unsigned char c)
{
	_kb_wait();
	outportb(c, 0x64);
}

/**
 * _translate_sc()
 *
 * Translates a scancode from the keyboard
 */
unsigned _translate_sc(unsigned k)
{
  100874:	55                   	push   %ebp
  100875:	89 e5                	mov    %esp,%ebp
  100877:	83 ec 08             	sub    $0x8,%esp
  10087a:	8b 45 08             	mov    0x8(%ebp),%eax
	unsigned c;
	static unsigned altk;
	unsigned donefirst = 0;

	if(k == KEY_BKSPACE)
  10087d:	83 f8 0e             	cmp    $0xe,%eax
  100880:	0f 84 f2 09 00 00    	je     101278 <_translate_sc+0xa04>
	{
		if(numkeysbuffer - 1 < 0)
		{
			numkeysbuffer = 0;
			return 0;
		}
	}

	switch(k)
  100886:	3d e0 00 00 00       	cmp    $0xe0,%eax
  10088b:	0f 87 d3 09 00 00    	ja     101264 <_translate_sc+0x9f0>
  100891:	ff 24 85 dc 54 10 00 	jmp    *0x1054dc(,%eax,4)
	{
		case 0xE0:
			altk = 1; c = 0; donefirst = 1; break;
  100898:	31 d2                	xor    %edx,%edx
  10089a:	c7 05 00 80 10 00 01 	movl   $0x1,0x108000
  1008a1:	00 00 00 
		case KEY_TILDA:	/* ` or ~ */
			c = (keys[KEY_LSHIFT] || keys[KEY_RSHIFT]) ? 126 : 126; break;
		case KEY_END: c = 0; if(keys[KEYP_NUMLCK] && altk == 0) c = 49; break;
		case KEY_1:
			c = (keys[KEY_LSHIFT] || keys[KEY_RSHIFT]) ? 33 : 49; break;
		case KEY_DOWN: c = 0; if(keys[KEYP_NUMLCK] && altk == 0) c = 50; break;
		case KEY_2:
			c = (keys[KEY_LSHIFT] || keys[KEY_RSHIFT]) ? 64 : 50; break;
		case KEY_PGDOWN: c = 0; if(keys[KEYP_NUMLCK] && altk == 0) c = 51; break;
		case KEY_3:
			c = (keys[KEY_LSHIFT] || keys[KEY_RSHIFT]) ? 35 : 51; break;
		case KEY_LEFT: c = 0; if(keys[KEYP_NUMLCK] && altk == 0) c = 52; break;
		case KEY_4:
			c = (keys[KEY_LSHIFT] || keys[KEY_RSHIFT]) ? 36 : 52; break;
		case KEYP_5: c = 0; if(keys[KEYP_NUMLCK] && altk == 0) c = 53; break;
		case KEY_5:
			c = (keys[KEY_LSHIFT] || keys[KEY_RSHIFT]) ? 35 : 53; break;
		case KEY_RIGHT: c = 0; if(keys[KEYP_NUMLCK] && altk == 0) c = 54; break;
		case KEY_6:
			c = (keys[KEY_LSHIFT] || keys[KEY_RSHIFT]) ? 94 : 54; break;
		case KEY_HOME: c = 0; if(keys[KEYP_NUMLCK] && altk == 0) c = 55; break;
		case KEY_7:
			c = (keys[KEY_LSHIFT] || keys[KEY_RSHIFT]) ? 38 : 55; break;
		case KEY_UP: c = 0; if(keys[KEYP_NUMLCK] && altk == 0) c = 56; break;
		case KEYP_ASTERISK: c = 42; break;
		case KEY_8:
			c = (keys[KEY_LSHIFT] || keys[KEY_RSHIFT]) ? 42 : 56; break;
		case KEY_PGUP: c = 0; if(keys[KEYP_NUMLCK] && altk == 0) c = 57; break;
		case KEY_9:
			c = (keys[KEY_LSHIFT] || keys[KEY_RSHIFT]) ? 40 : 57; break;
		case KEY_INSERT: c = 0; if(keys[KEYP_NUMLCK] && altk == 0) c = 48; break;
		case KEY_0:
			c = (keys[KEY_LSHIFT] || keys[KEY_RSHIFT]) ? 41 : 48; break;
		case KEYP_MINUS: c = 45; break;
		case KEY_MINUS:
			c = (keys[KEY_LSHIFT] || keys[KEY_RSHIFT]) ? 95 : 45; break;
		case KEYP_PLUS: c = 43; break;
		case KEY_PLUS:
			c = (keys[KEY_LSHIFT] || keys[KEY_RSHIFT]) ? 61 : 43; break;
		case KEY_BKSLASH:
			c = (keys[KEY_LSHIFT] || keys[KEY_RSHIFT]) ? 124 : 92; break;
		case KEY_Q:
			c = (keys[KEY_LSHIFT] || keys[KEY_RSHIFT]) ? 81 : 113; break;
		case KEY_W:
			c = (keys[KEY_LSHIFT] || keys[KEY_RSHIFT]) ? 87 : 119; break;
		case KEY_E:
			c = (keys[KEY_LSHIFT] || keys[KEY_RSHIFT]) ? 69 : 101; break;
		case KEY_R:
			c = (keys[KEY_LSHIFT] || keys[KEY_RSHIFT]) ? 82 : 114; break;
		case KEY_T:
			c = (keys[KEY_LSHIFT] || keys[KEY_RSHIFT]) ? 84 : 116; break;
		case KEY_Y:
			c = (keys[KEY_LSHIFT] || keys[KEY_RSHIFT]) ? 89 : 121; break;
		case KEY_U:
			c = (keys[KEY_LSHIFT] || keys[KEY_RSHIFT]) ? 85 : 117; break;
		case KEY_I:
			c = (keys[KEY_LSHIFT] || keys[KEY_RSHIFT]) ? 73 : 105; break;
		case KEY_O:
			c = (keys[KEY_LSHIFT] || keys[KEY_RSHIFT]) ? 79 : 111; break;
		case KEY_P:
			c = (keys[KEY_LSHIFT] || keys[KEY_RSHIFT]) ? 80 : 112; break;
		case KEY_LBRACKET:
			c = (keys[KEY_LSHIFT] || keys[KEY_RSHIFT]) ? 123 : 91; break;
		case KEY_RBRACKET:
			c = (keys[KEY_LSHIFT] || keys[KEY_RSHIFT]) ? 125 : 93; break;
		case KEY_ENTER:
			c = (keys[KEY_LSHIFT] || keys[KEY_RSHIFT]) ? 10 : 10; break;
		case KEY_A:
			c = (keys[KEY_LSHIFT] || keys[KEY_RSHIFT]) ? 65 : 97; break;
		case KEY_S:
			c = (keys[KEY_LSHIFT] || keys[KEY_RSHIFT]) ? 83 : 115; break;
		case KEY_D:
			c = (keys[KEY_LSHIFT] || keys[KEY_RSHIFT]) ? 68 : 100; break;
		case KEY_F:
			c = (keys[KEY_LSHIFT] || keys[KEY_RSHIFT]) ? 70 : 102; break;
		case KEY_G:
			c = (keys[KEY_LSHIFT] || keys[KEY_RSHIFT]) ? 71 : 103; break;
		case KEY_H:
			c = (keys[KEY_LSHIFT] || keys[KEY_RSHIFT]) ? 72 : 104; break;
		case KEY_J:
			c = (keys[KEY_LSHIFT] || keys[KEY_RSHIFT]) ? 74 : 106; break;
		case KEY_K:
			c = (keys[KEY_LSHIFT] || keys[KEY_RSHIFT]) ? 75 : 107; break;
		case KEY_L:
			c = (keys[KEY_LSHIFT] || keys[KEY_RSHIFT]) ? 76 : 108; break;
		case KEY_SEMICOLON:
			c = (keys[KEY_LSHIFT] || keys[KEY_RSHIFT]) ? 58 : 59; break;
		case KEY_QUOTE:
			c = (keys[KEY_LSHIFT] || keys[KEY_RSHIFT]) ? 34 : 39; break;
		case KEY_Z:
			c = (keys[KEY_LSHIFT] || keys[KEY_RSHIFT]) ? 90 : 122; break;
		case KEY_X:
			c = (keys[KEY_LSHIFT] || keys[KEY_RSHIFT]) ? 88 : 120; break;
		case KEY_C:
			c = (keys[KEY_LSHIFT] || keys[KEY_RSHIFT]) ? 67 : 99; break;
		case KEY_V:
			c = (keys[KEY_LSHIFT] || keys[KEY_RSHIFT]) ? 86 : 118; break;
		case KEY_B:
			c = (keys[KEY_LSHIFT] || keys[KEY_RSHIFT]) ? 66 : 98; break;
		case KEY_N:
			c = (keys[KEY_LSHIFT] || keys[KEY_RSHIFT]) ? 78 : 110; break;
		case KEY_M:
			c = (keys[KEY_LSHIFT] || keys[KEY_RSHIFT]) ? 77 : 109; break;
		case KEY_COMMA:
			c = (keys[KEY_LSHIFT] || keys[KEY_RSHIFT]) ? 60 : 44; break;
		case KEY_DEL: c = 0; if(keys[KEYP_NUMLCK] && altk == 0) c = 46; break;
		case KEY_PERIOD:
			c = (keys[KEY_LSHIFT] || keys[KEY_RSHIFT]) ? 62 : 46; break;
		case KEY_SLASH:
			c = (keys[KEY_LSHIFT] || keys[KEY_RSHIFT]) ? 63 : 47; break;
		case KEY_SPACE:
			c = (keys[KEY_LSHIFT] || keys[KEY_RSHIFT]) ? 32 : 32; break;
		case KEY_BKSPACE: c = '\b'; break; /* just for now */
		default:
			c = 0;
	}

	if(donefirst == 0)
		altk = 0;

	if(keys[KEY_CAPS])
  1008a4:	a1 28 84 10 00       	mov    0x108428,%eax
  1008a9:	85 c0                	test   %eax,%eax
  1008ab:	74 23                	je     1008d0 <_translate_sc+0x5c>
	{
		if(keys[KEY_LSHIFT] || keys[KEY_RSHIFT])
  1008ad:	a1 e8 83 10 00       	mov    0x1083e8,%eax
  1008b2:	85 c0                	test   %eax,%eax
  1008b4:	75 0d                	jne    1008c3 <_translate_sc+0x4f>
  1008b6:	a1 18 84 10 00       	mov    0x108418,%eax
  1008bb:	85 c0                	test   %eax,%eax
  1008bd:	0f 84 bd 00 00 00    	je     100980 <_translate_sc+0x10c>
		{
			if(c >= 'A' && c <= 'Z')
  1008c3:	8d 42 bf             	lea    0xffffffbf(%edx),%eax
  1008c6:	83 f8 19             	cmp    $0x19,%eax
  1008c9:	77 05                	ja     1008d0 <_translate_sc+0x5c>
				c += 32;
  1008cb:	83 c2 20             	add    $0x20,%edx
  1008ce:	89 f6                	mov    %esi,%esi
		}
		else
		{
			if(c >= 'a' && c <= 'z')
				c -= 32;
		}
	}

	/**
	 * Simple shell for now
	 */
	if(c != 0 && c != '\n' && c != '\b')
  1008d0:	85 d2                	test   %edx,%edx
  1008d2:	74 38                	je     10090c <_translate_sc+0x98>
  1008d4:	83 fa 0a             	cmp    $0xa,%edx
  1008d7:	74 63                	je     10093c <_translate_sc+0xc8>
  1008d9:	83 fa 08             	cmp    $0x8,%edx
  1008dc:	74 2e                	je     10090c <_translate_sc+0x98>
	{
		if((numkeysbuffer - 1) == KBD_BUF_SIZE)
  1008de:	a1 40 85 10 00       	mov    0x108540,%eax
  1008e3:	83 f8 41             	cmp    $0x41,%eax
  1008e6:	74 10                	je     1008f8 <_translate_sc+0x84>
		{
			numkeysbuffer = 0;
			szInBuf[0] = '\0';
		
			szInBuf[numkeysbuffer] = c;
			numkeysbuffer++;
		}
		else
		{
			szInBuf[numkeysbuffer] = c;
  1008e8:	88 90 60 85 10 00    	mov    %dl,0x108560(%eax)
			numkeysbuffer++;
  1008ee:	40                   	inc    %eax
  1008ef:	a3 40 85 10 00       	mov    %eax,0x108540
		}
	}
	else if(c == '\n')
	{
		printf("\n");
		/**
		 * Make it a real string
		 */
		szInBuf[numkeysbuffer] = '\0';

		/**
		 * Process command
		 */
		processCommand(&szInBuf[0], numkeysbuffer - 1);

		/**
		 * Clear buffer
		 */
		numkeysbuffer = 0;
		szInBuf[0] = '\0';

		/**
		 * Print "line"
		 */
		printf("$ ");

		c = 0;
	}
	else if(c == '\b')
	{
		szInBuf[numkeysbuffer] = '\0';
		numkeysbuffer--;
		printf("\b \b");

		c = 0;
	}
	
	return c;
  1008f4:	89 d0                	mov    %edx,%eax
}
  1008f6:	c9                   	leave  
  1008f7:	c3                   	ret    
  1008f8:	88 15 60 85 10 00    	mov    %dl,0x108560
  1008fe:	c7 05 40 85 10 00 01 	movl   $0x1,0x108540
  100905:	00 00 00 
  100908:	eb ea                	jmp    1008f4 <_translate_sc+0x80>
  10090a:	89 f6                	mov    %esi,%esi
  10090c:	83 fa 0a             	cmp    $0xa,%edx
  10090f:	74 2b                	je     10093c <_translate_sc+0xc8>
  100911:	83 fa 08             	cmp    $0x8,%edx
  100914:	75 de                	jne    1008f4 <_translate_sc+0x80>
  100916:	a1 40 85 10 00       	mov    0x108540,%eax
  10091b:	c6 80 60 85 10 00 00 	movb   $0x0,0x108560(%eax)
  100922:	83 ec 0c             	sub    $0xc,%esp
  100925:	48                   	dec    %eax
  100926:	a3 40 85 10 00       	mov    %eax,0x108540
  10092b:	68 d2 54 10 00       	push   $0x1054d2
  100930:	e8 9f 47 00 00       	call   1050d4 <printf>
  100935:	31 d2                	xor    %edx,%edx
  100937:	83 c4 10             	add    $0x10,%esp
  10093a:	eb b8                	jmp    1008f4 <_translate_sc+0x80>
  10093c:	83 ec 0c             	sub    $0xc,%esp
  10093f:	68 f8 5a 10 00       	push   $0x105af8
  100944:	e8 8b 47 00 00       	call   1050d4 <printf>
  100949:	a1 40 85 10 00       	mov    0x108540,%eax
  10094e:	5a                   	pop    %edx
  10094f:	59                   	pop    %ecx
  100950:	c6 80 60 85 10 00 00 	movb   $0x0,0x108560(%eax)
  100957:	48                   	dec    %eax
  100958:	50                   	push   %eax
  100959:	68 60 85 10 00       	push   $0x108560
  10095e:	e8 e9 fc ff ff       	call   10064c <processCommand>
  100963:	c7 05 40 85 10 00 00 	movl   $0x0,0x108540
  10096a:	00 00 00 
  10096d:	c6 05 60 85 10 00 00 	movb   $0x0,0x108560
  100974:	c7 04 24 d6 54 10 00 	movl   $0x1054d6,(%esp,1)
  10097b:	eb b3                	jmp    100930 <_translate_sc+0xbc>
  10097d:	8d 76 00             	lea    0x0(%esi),%esi
  100980:	8d 42 9f             	lea    0xffffff9f(%edx),%eax
  100983:	83 f8 19             	cmp    $0x19,%eax
  100986:	0f 87 44 ff ff ff    	ja     1008d0 <_translate_sc+0x5c>
  10098c:	83 ea 20             	sub    $0x20,%edx
  10098f:	e9 3c ff ff ff       	jmp    1008d0 <_translate_sc+0x5c>
  100994:	a1 e8 83 10 00       	mov    0x1083e8,%eax
  100999:	85 c0                	test   %eax,%eax
  10099b:	75 09                	jne    1009a6 <_translate_sc+0x132>
  10099d:	a1 18 84 10 00       	mov    0x108418,%eax
  1009a2:	85 c0                	test   %eax,%eax
  1009a4:	74 15                	je     1009bb <_translate_sc+0x147>
  1009a6:	ba 21 00 00 00       	mov    $0x21,%edx
  1009ab:	90                   	nop    
  1009ac:	c7 05 00 80 10 00 00 	movl   $0x0,0x108000
  1009b3:	00 00 00 
  1009b6:	e9 e9 fe ff ff       	jmp    1008a4 <_translate_sc+0x30>
  1009bb:	ba 31 00 00 00       	mov    $0x31,%edx
  1009c0:	eb ea                	jmp    1009ac <_translate_sc+0x138>
  1009c2:	8b 15 e8 83 10 00    	mov    0x1083e8,%edx
  1009c8:	85 d2                	test   %edx,%edx
  1009ca:	75 09                	jne    1009d5 <_translate_sc+0x161>
  1009cc:	a1 18 84 10 00       	mov    0x108418,%eax
  1009d1:	85 c0                	test   %eax,%eax
  1009d3:	74 07                	je     1009dc <_translate_sc+0x168>
  1009d5:	ba 40 00 00 00       	mov    $0x40,%edx
  1009da:	eb d0                	jmp    1009ac <_translate_sc+0x138>
  1009dc:	ba 32 00 00 00       	mov    $0x32,%edx
  1009e1:	eb c9                	jmp    1009ac <_translate_sc+0x138>
  1009e3:	a1 e8 83 10 00       	mov    0x1083e8,%eax
  1009e8:	85 c0                	test   %eax,%eax
  1009ea:	75 09                	jne    1009f5 <_translate_sc+0x181>
  1009ec:	a1 18 84 10 00       	mov    0x108418,%eax
  1009f1:	85 c0                	test   %eax,%eax
  1009f3:	74 07                	je     1009fc <_translate_sc+0x188>
  1009f5:	ba 23 00 00 00       	mov    $0x23,%edx
  1009fa:	eb b0                	jmp    1009ac <_translate_sc+0x138>
  1009fc:	ba 33 00 00 00       	mov    $0x33,%edx
  100a01:	eb a9                	jmp    1009ac <_translate_sc+0x138>
  100a03:	8b 15 e8 83 10 00    	mov    0x1083e8,%edx
  100a09:	85 d2                	test   %edx,%edx
  100a0b:	75 09                	jne    100a16 <_translate_sc+0x1a2>
  100a0d:	a1 18 84 10 00       	mov    0x108418,%eax
  100a12:	85 c0                	test   %eax,%eax
  100a14:	74 07                	je     100a1d <_translate_sc+0x1a9>
  100a16:	ba 24 00 00 00       	mov    $0x24,%edx
  100a1b:	eb 8f                	jmp    1009ac <_translate_sc+0x138>
  100a1d:	ba 34 00 00 00       	mov    $0x34,%edx
  100a22:	eb 88                	jmp    1009ac <_translate_sc+0x138>
  100a24:	a1 e8 83 10 00       	mov    0x1083e8,%eax
  100a29:	85 c0                	test   %eax,%eax
  100a2b:	75 09                	jne    100a36 <_translate_sc+0x1c2>
  100a2d:	a1 18 84 10 00       	mov    0x108418,%eax
  100a32:	85 c0                	test   %eax,%eax
  100a34:	74 0a                	je     100a40 <_translate_sc+0x1cc>
  100a36:	ba 23 00 00 00       	mov    $0x23,%edx
  100a3b:	e9 6c ff ff ff       	jmp    1009ac <_translate_sc+0x138>
  100a40:	ba 35 00 00 00       	mov    $0x35,%edx
  100a45:	e9 62 ff ff ff       	jmp    1009ac <_translate_sc+0x138>
  100a4a:	8b 15 e8 83 10 00    	mov    0x1083e8,%edx
  100a50:	85 d2                	test   %edx,%edx
  100a52:	75 09                	jne    100a5d <_translate_sc+0x1e9>
  100a54:	a1 18 84 10 00       	mov    0x108418,%eax
  100a59:	85 c0                	test   %eax,%eax
  100a5b:	74 0a                	je     100a67 <_translate_sc+0x1f3>
  100a5d:	ba 5e 00 00 00       	mov    $0x5e,%edx
  100a62:	e9 45 ff ff ff       	jmp    1009ac <_translate_sc+0x138>
  100a67:	ba 36 00 00 00       	mov    $0x36,%edx
  100a6c:	e9 3b ff ff ff       	jmp    1009ac <_translate_sc+0x138>
  100a71:	a1 e8 83 10 00       	mov    0x1083e8,%eax
  100a76:	85 c0                	test   %eax,%eax
  100a78:	75 09                	jne    100a83 <_translate_sc+0x20f>
  100a7a:	a1 18 84 10 00       	mov    0x108418,%eax
  100a7f:	85 c0                	test   %eax,%eax
  100a81:	74 0a                	je     100a8d <_translate_sc+0x219>
  100a83:	ba 26 00 00 00       	mov    $0x26,%edx
  100a88:	e9 1f ff ff ff       	jmp    1009ac <_translate_sc+0x138>
  100a8d:	ba 37 00 00 00       	mov    $0x37,%edx
  100a92:	e9 15 ff ff ff       	jmp    1009ac <_translate_sc+0x138>
  100a97:	8b 15 e8 83 10 00    	mov    0x1083e8,%edx
  100a9d:	85 d2                	test   %edx,%edx
  100a9f:	75 09                	jne    100aaa <_translate_sc+0x236>
  100aa1:	a1 18 84 10 00       	mov    0x108418,%eax
  100aa6:	85 c0                	test   %eax,%eax
  100aa8:	74 0a                	je     100ab4 <_translate_sc+0x240>
  100aaa:	ba 2a 00 00 00       	mov    $0x2a,%edx
  100aaf:	e9 f8 fe ff ff       	jmp    1009ac <_translate_sc+0x138>
  100ab4:	ba 38 00 00 00       	mov    $0x38,%edx
  100ab9:	e9 ee fe ff ff       	jmp    1009ac <_translate_sc+0x138>
  100abe:	a1 e8 83 10 00       	mov    0x1083e8,%eax
  100ac3:	85 c0                	test   %eax,%eax
  100ac5:	75 09                	jne    100ad0 <_translate_sc+0x25c>
  100ac7:	a1 18 84 10 00       	mov    0x108418,%eax
  100acc:	85 c0                	test   %eax,%eax
  100ace:	74 0a                	je     100ada <_translate_sc+0x266>
  100ad0:	ba 28 00 00 00       	mov    $0x28,%edx
  100ad5:	e9 d2 fe ff ff       	jmp    1009ac <_translate_sc+0x138>
  100ada:	ba 39 00 00 00       	mov    $0x39,%edx
  100adf:	e9 c8 fe ff ff       	jmp    1009ac <_translate_sc+0x138>
  100ae4:	8b 15 e8 83 10 00    	mov    0x1083e8,%edx
  100aea:	85 d2                	test   %edx,%edx
  100aec:	75 09                	jne    100af7 <_translate_sc+0x283>
  100aee:	a1 18 84 10 00       	mov    0x108418,%eax
  100af3:	85 c0                	test   %eax,%eax
  100af5:	74 0a                	je     100b01 <_translate_sc+0x28d>
  100af7:	ba 29 00 00 00       	mov    $0x29,%edx
  100afc:	e9 ab fe ff ff       	jmp    1009ac <_translate_sc+0x138>
  100b01:	ba 30 00 00 00       	mov    $0x30,%edx
  100b06:	e9 a1 fe ff ff       	jmp    1009ac <_translate_sc+0x138>
  100b0b:	a1 e8 83 10 00       	mov    0x1083e8,%eax
  100b10:	85 c0                	test   %eax,%eax
  100b12:	75 09                	jne    100b1d <_translate_sc+0x2a9>
  100b14:	a1 18 84 10 00       	mov    0x108418,%eax
  100b19:	85 c0                	test   %eax,%eax
  100b1b:	74 0a                	je     100b27 <_translate_sc+0x2b3>
  100b1d:	ba 5f 00 00 00       	mov    $0x5f,%edx
  100b22:	e9 85 fe ff ff       	jmp    1009ac <_translate_sc+0x138>
  100b27:	ba 2d 00 00 00       	mov    $0x2d,%edx
  100b2c:	e9 7b fe ff ff       	jmp    1009ac <_translate_sc+0x138>
  100b31:	a1 e8 83 10 00       	mov    0x1083e8,%eax
  100b36:	85 c0                	test   %eax,%eax
  100b38:	75 09                	jne    100b43 <_translate_sc+0x2cf>
  100b3a:	a1 18 84 10 00       	mov    0x108418,%eax
  100b3f:	85 c0                	test   %eax,%eax
  100b41:	74 0a                	je     100b4d <_translate_sc+0x2d9>
  100b43:	ba 3d 00 00 00       	mov    $0x3d,%edx
  100b48:	e9 5f fe ff ff       	jmp    1009ac <_translate_sc+0x138>
  100b4d:	ba 2b 00 00 00       	mov    $0x2b,%edx
  100b52:	e9 55 fe ff ff       	jmp    1009ac <_translate_sc+0x138>
  100b57:	ba 08 00 00 00       	mov    $0x8,%edx
  100b5c:	e9 4b fe ff ff       	jmp    1009ac <_translate_sc+0x138>
  100b61:	8b 15 e8 83 10 00    	mov    0x1083e8,%edx
  100b67:	85 d2                	test   %edx,%edx
  100b69:	75 09                	jne    100b74 <_translate_sc+0x300>
  100b6b:	a1 18 84 10 00       	mov    0x108418,%eax
  100b70:	85 c0                	test   %eax,%eax
  100b72:	74 0a                	je     100b7e <_translate_sc+0x30a>
  100b74:	ba 51 00 00 00       	mov    $0x51,%edx
  100b79:	e9 2e fe ff ff       	jmp    1009ac <_translate_sc+0x138>
  100b7e:	ba 71 00 00 00       	mov    $0x71,%edx
  100b83:	e9 24 fe ff ff       	jmp    1009ac <_translate_sc+0x138>
  100b88:	a1 e8 83 10 00       	mov    0x1083e8,%eax
  100b8d:	85 c0                	test   %eax,%eax
  100b8f:	75 09                	jne    100b9a <_translate_sc+0x326>
  100b91:	a1 18 84 10 00       	mov    0x108418,%eax
  100b96:	85 c0                	test   %eax,%eax
  100b98:	74 0a                	je     100ba4 <_translate_sc+0x330>
  100b9a:	ba 57 00 00 00       	mov    $0x57,%edx
  100b9f:	e9 08 fe ff ff       	jmp    1009ac <_translate_sc+0x138>
  100ba4:	ba 77 00 00 00       	mov    $0x77,%edx
  100ba9:	e9 fe fd ff ff       	jmp    1009ac <_translate_sc+0x138>
  100bae:	a1 e8 83 10 00       	mov    0x1083e8,%eax
  100bb3:	85 c0                	test   %eax,%eax
  100bb5:	75 09                	jne    100bc0 <_translate_sc+0x34c>
  100bb7:	a1 18 84 10 00       	mov    0x108418,%eax
  100bbc:	85 c0                	test   %eax,%eax
  100bbe:	74 0a                	je     100bca <_translate_sc+0x356>
  100bc0:	ba 45 00 00 00       	mov    $0x45,%edx
  100bc5:	e9 e2 fd ff ff       	jmp    1009ac <_translate_sc+0x138>
  100bca:	ba 65 00 00 00       	mov    $0x65,%edx
  100bcf:	e9 d8 fd ff ff       	jmp    1009ac <_translate_sc+0x138>
  100bd4:	a1 e8 83 10 00       	mov    0x1083e8,%eax
  100bd9:	85 c0                	test   %eax,%eax
  100bdb:	75 0a                	jne    100be7 <_translate_sc+0x373>
  100bdd:	8b 0d 18 84 10 00    	mov    0x108418,%ecx
  100be3:	85 c9                	test   %ecx,%ecx
  100be5:	74 0a                	je     100bf1 <_translate_sc+0x37d>
  100be7:	ba 52 00 00 00       	mov    $0x52,%edx
  100bec:	e9 bb fd ff ff       	jmp    1009ac <_translate_sc+0x138>
  100bf1:	ba 72 00 00 00       	mov    $0x72,%edx
  100bf6:	e9 b1 fd ff ff       	jmp    1009ac <_translate_sc+0x138>
  100bfb:	8b 15 e8 83 10 00    	mov    0x1083e8,%edx
  100c01:	85 d2                	test   %edx,%edx
  100c03:	75 09                	jne    100c0e <_translate_sc+0x39a>
  100c05:	a1 18 84 10 00       	mov    0x108418,%eax
  100c0a:	85 c0                	test   %eax,%eax
  100c0c:	74 0a                	je     100c18 <_translate_sc+0x3a4>
  100c0e:	ba 54 00 00 00       	mov    $0x54,%edx
  100c13:	e9 94 fd ff ff       	jmp    1009ac <_translate_sc+0x138>
  100c18:	ba 74 00 00 00       	mov    $0x74,%edx
  100c1d:	e9 8a fd ff ff       	jmp    1009ac <_translate_sc+0x138>
  100c22:	a1 e8 83 10 00       	mov    0x1083e8,%eax
  100c27:	85 c0                	test   %eax,%eax
  100c29:	75 09                	jne    100c34 <_translate_sc+0x3c0>
  100c2b:	a1 18 84 10 00       	mov    0x108418,%eax
  100c30:	85 c0                	test   %eax,%eax
  100c32:	74 0a                	je     100c3e <_translate_sc+0x3ca>
  100c34:	ba 59 00 00 00       	mov    $0x59,%edx
  100c39:	e9 6e fd ff ff       	jmp    1009ac <_translate_sc+0x138>
  100c3e:	ba 79 00 00 00       	mov    $0x79,%edx
  100c43:	e9 64 fd ff ff       	jmp    1009ac <_translate_sc+0x138>
  100c48:	a1 e8 83 10 00       	mov    0x1083e8,%eax
  100c4d:	85 c0                	test   %eax,%eax
  100c4f:	75 09                	jne    100c5a <_translate_sc+0x3e6>
  100c51:	a1 18 84 10 00       	mov    0x108418,%eax
  100c56:	85 c0                	test   %eax,%eax
  100c58:	74 0a                	je     100c64 <_translate_sc+0x3f0>
  100c5a:	ba 55 00 00 00       	mov    $0x55,%edx
  100c5f:	e9 48 fd ff ff       	jmp    1009ac <_translate_sc+0x138>
  100c64:	ba 75 00 00 00       	mov    $0x75,%edx
  100c69:	e9 3e fd ff ff       	jmp    1009ac <_translate_sc+0x138>
  100c6e:	a1 e8 83 10 00       	mov    0x1083e8,%eax
  100c73:	85 c0                	test   %eax,%eax
  100c75:	75 0a                	jne    100c81 <_translate_sc+0x40d>
  100c77:	8b 0d 18 84 10 00    	mov    0x108418,%ecx
  100c7d:	85 c9                	test   %ecx,%ecx
  100c7f:	74 0a                	je     100c8b <_translate_sc+0x417>
  100c81:	ba 49 00 00 00       	mov    $0x49,%edx
  100c86:	e9 21 fd ff ff       	jmp    1009ac <_translate_sc+0x138>
  100c8b:	ba 69 00 00 00       	mov    $0x69,%edx
  100c90:	e9 17 fd ff ff       	jmp    1009ac <_translate_sc+0x138>
  100c95:	8b 15 e8 83 10 00    	mov    0x1083e8,%edx
  100c9b:	85 d2                	test   %edx,%edx
  100c9d:	75 09                	jne    100ca8 <_translate_sc+0x434>
  100c9f:	a1 18 84 10 00       	mov    0x108418,%eax
  100ca4:	85 c0                	test   %eax,%eax
  100ca6:	74 0a                	je     100cb2 <_translate_sc+0x43e>
  100ca8:	ba 4f 00 00 00       	mov    $0x4f,%edx
  100cad:	e9 fa fc ff ff       	jmp    1009ac <_translate_sc+0x138>
  100cb2:	ba 6f 00 00 00       	mov    $0x6f,%edx
  100cb7:	e9 f0 fc ff ff       	jmp    1009ac <_translate_sc+0x138>
  100cbc:	a1 e8 83 10 00       	mov    0x1083e8,%eax
  100cc1:	85 c0                	test   %eax,%eax
  100cc3:	75 09                	jne    100cce <_translate_sc+0x45a>
  100cc5:	a1 18 84 10 00       	mov    0x108418,%eax
  100cca:	85 c0                	test   %eax,%eax
  100ccc:	74 0a                	je     100cd8 <_translate_sc+0x464>
  100cce:	ba 50 00 00 00       	mov    $0x50,%edx
  100cd3:	e9 d4 fc ff ff       	jmp    1009ac <_translate_sc+0x138>
  100cd8:	ba 70 00 00 00       	mov    $0x70,%edx
  100cdd:	e9 ca fc ff ff       	jmp    1009ac <_translate_sc+0x138>
  100ce2:	a1 e8 83 10 00       	mov    0x1083e8,%eax
  100ce7:	85 c0                	test   %eax,%eax
  100ce9:	75 09                	jne    100cf4 <_translate_sc+0x480>
  100ceb:	a1 18 84 10 00       	mov    0x108418,%eax
  100cf0:	85 c0                	test   %eax,%eax
  100cf2:	74 0a                	je     100cfe <_translate_sc+0x48a>
  100cf4:	ba 7b 00 00 00       	mov    $0x7b,%edx
  100cf9:	e9 ae fc ff ff       	jmp    1009ac <_translate_sc+0x138>
  100cfe:	ba 5b 00 00 00       	mov    $0x5b,%edx
  100d03:	e9 a4 fc ff ff       	jmp    1009ac <_translate_sc+0x138>
  100d08:	a1 e8 83 10 00       	mov    0x1083e8,%eax
  100d0d:	85 c0                	test   %eax,%eax
  100d0f:	75 0a                	jne    100d1b <_translate_sc+0x4a7>
  100d11:	8b 0d 18 84 10 00    	mov    0x108418,%ecx
  100d17:	85 c9                	test   %ecx,%ecx
  100d19:	74 0a                	je     100d25 <_translate_sc+0x4b1>
  100d1b:	ba 7d 00 00 00       	mov    $0x7d,%edx
  100d20:	e9 87 fc ff ff       	jmp    1009ac <_translate_sc+0x138>
  100d25:	ba 5d 00 00 00       	mov    $0x5d,%edx
  100d2a:	e9 7d fc ff ff       	jmp    1009ac <_translate_sc+0x138>
  100d2f:	ba 0a 00 00 00       	mov    $0xa,%edx
  100d34:	e9 73 fc ff ff       	jmp    1009ac <_translate_sc+0x138>
  100d39:	8b 15 e8 83 10 00    	mov    0x1083e8,%edx
  100d3f:	85 d2                	test   %edx,%edx
  100d41:	75 09                	jne    100d4c <_translate_sc+0x4d8>
  100d43:	a1 18 84 10 00       	mov    0x108418,%eax
  100d48:	85 c0                	test   %eax,%eax
  100d4a:	74 0a                	je     100d56 <_translate_sc+0x4e2>
  100d4c:	ba 41 00 00 00       	mov    $0x41,%edx
  100d51:	e9 56 fc ff ff       	jmp    1009ac <_translate_sc+0x138>
  100d56:	ba 61 00 00 00       	mov    $0x61,%edx
  100d5b:	e9 4c fc ff ff       	jmp    1009ac <_translate_sc+0x138>
  100d60:	a1 e8 83 10 00       	mov    0x1083e8,%eax
  100d65:	85 c0                	test   %eax,%eax
  100d67:	75 09                	jne    100d72 <_translate_sc+0x4fe>
  100d69:	a1 18 84 10 00       	mov    0x108418,%eax
  100d6e:	85 c0                	test   %eax,%eax
  100d70:	74 0a                	je     100d7c <_translate_sc+0x508>
  100d72:	ba 53 00 00 00       	mov    $0x53,%edx
  100d77:	e9 30 fc ff ff       	jmp    1009ac <_translate_sc+0x138>
  100d7c:	ba 73 00 00 00       	mov    $0x73,%edx
  100d81:	e9 26 fc ff ff       	jmp    1009ac <_translate_sc+0x138>
  100d86:	a1 e8 83 10 00       	mov    0x1083e8,%eax
  100d8b:	85 c0                	test   %eax,%eax
  100d8d:	75 09                	jne    100d98 <_translate_sc+0x524>
  100d8f:	a1 18 84 10 00       	mov    0x108418,%eax
  100d94:	85 c0                	test   %eax,%eax
  100d96:	74 0a                	je     100da2 <_translate_sc+0x52e>
  100d98:	ba 44 00 00 00       	mov    $0x44,%edx
  100d9d:	e9 0a fc ff ff       	jmp    1009ac <_translate_sc+0x138>
  100da2:	ba 64 00 00 00       	mov    $0x64,%edx
  100da7:	e9 00 fc ff ff       	jmp    1009ac <_translate_sc+0x138>
  100dac:	a1 e8 83 10 00       	mov    0x1083e8,%eax
  100db1:	85 c0                	test   %eax,%eax
  100db3:	75 0a                	jne    100dbf <_translate_sc+0x54b>
  100db5:	8b 0d 18 84 10 00    	mov    0x108418,%ecx
  100dbb:	85 c9                	test   %ecx,%ecx
  100dbd:	74 0a                	je     100dc9 <_translate_sc+0x555>
  100dbf:	ba 46 00 00 00       	mov    $0x46,%edx
  100dc4:	e9 e3 fb ff ff       	jmp    1009ac <_translate_sc+0x138>
  100dc9:	ba 66 00 00 00       	mov    $0x66,%edx
  100dce:	e9 d9 fb ff ff       	jmp    1009ac <_translate_sc+0x138>
  100dd3:	8b 15 e8 83 10 00    	mov    0x1083e8,%edx
  100dd9:	85 d2                	test   %edx,%edx
  100ddb:	75 09                	jne    100de6 <_translate_sc+0x572>
  100ddd:	a1 18 84 10 00       	mov    0x108418,%eax
  100de2:	85 c0                	test   %eax,%eax
  100de4:	74 0a                	je     100df0 <_translate_sc+0x57c>
  100de6:	ba 47 00 00 00       	mov    $0x47,%edx
  100deb:	e9 bc fb ff ff       	jmp    1009ac <_translate_sc+0x138>
  100df0:	ba 67 00 00 00       	mov    $0x67,%edx
  100df5:	e9 b2 fb ff ff       	jmp    1009ac <_translate_sc+0x138>
  100dfa:	a1 e8 83 10 00       	mov    0x1083e8,%eax
  100dff:	85 c0                	test   %eax,%eax
  100e01:	75 09                	jne    100e0c <_translate_sc+0x598>
  100e03:	a1 18 84 10 00       	mov    0x108418,%eax
  100e08:	85 c0                	test   %eax,%eax
  100e0a:	74 0a                	je     100e16 <_translate_sc+0x5a2>
  100e0c:	ba 48 00 00 00       	mov    $0x48,%edx
  100e11:	e9 96 fb ff ff       	jmp    1009ac <_translate_sc+0x138>
  100e16:	ba 68 00 00 00       	mov    $0x68,%edx
  100e1b:	e9 8c fb ff ff       	jmp    1009ac <_translate_sc+0x138>
  100e20:	a1 e8 83 10 00       	mov    0x1083e8,%eax
  100e25:	85 c0                	test   %eax,%eax
  100e27:	75 09                	jne    100e32 <_translate_sc+0x5be>
  100e29:	a1 18 84 10 00       	mov    0x108418,%eax
  100e2e:	85 c0                	test   %eax,%eax
  100e30:	74 0a                	je     100e3c <_translate_sc+0x5c8>
  100e32:	ba 4a 00 00 00       	mov    $0x4a,%edx
  100e37:	e9 70 fb ff ff       	jmp    1009ac <_translate_sc+0x138>
  100e3c:	ba 6a 00 00 00       	mov    $0x6a,%edx
  100e41:	e9 66 fb ff ff       	jmp    1009ac <_translate_sc+0x138>
  100e46:	a1 e8 83 10 00       	mov    0x1083e8,%eax
  100e4b:	85 c0                	test   %eax,%eax
  100e4d:	75 0a                	jne    100e59 <_translate_sc+0x5e5>
  100e4f:	8b 0d 18 84 10 00    	mov    0x108418,%ecx
  100e55:	85 c9                	test   %ecx,%ecx
  100e57:	74 0a                	je     100e63 <_translate_sc+0x5ef>
  100e59:	ba 4b 00 00 00       	mov    $0x4b,%edx
  100e5e:	e9 49 fb ff ff       	jmp    1009ac <_translate_sc+0x138>
  100e63:	ba 6b 00 00 00       	mov    $0x6b,%edx
  100e68:	e9 3f fb ff ff       	jmp    1009ac <_translate_sc+0x138>
  100e6d:	8b 15 e8 83 10 00    	mov    0x1083e8,%edx
  100e73:	85 d2                	test   %edx,%edx
  100e75:	75 09                	jne    100e80 <_translate_sc+0x60c>
  100e77:	a1 18 84 10 00       	mov    0x108418,%eax
  100e7c:	85 c0                	test   %eax,%eax
  100e7e:	74 0a                	je     100e8a <_translate_sc+0x616>
  100e80:	ba 4c 00 00 00       	mov    $0x4c,%edx
  100e85:	e9 22 fb ff ff       	jmp    1009ac <_translate_sc+0x138>
  100e8a:	ba 6c 00 00 00       	mov    $0x6c,%edx
  100e8f:	e9 18 fb ff ff       	jmp    1009ac <_translate_sc+0x138>
  100e94:	a1 e8 83 10 00       	mov    0x1083e8,%eax
  100e99:	85 c0                	test   %eax,%eax
  100e9b:	75 09                	jne    100ea6 <_translate_sc+0x632>
  100e9d:	a1 18 84 10 00       	mov    0x108418,%eax
  100ea2:	85 c0                	test   %eax,%eax
  100ea4:	74 0a                	je     100eb0 <_translate_sc+0x63c>
  100ea6:	ba 3a 00 00 00       	mov    $0x3a,%edx
  100eab:	e9 fc fa ff ff       	jmp    1009ac <_translate_sc+0x138>
  100eb0:	ba 3b 00 00 00       	mov    $0x3b,%edx
  100eb5:	e9 f2 fa ff ff       	jmp    1009ac <_translate_sc+0x138>
  100eba:	a1 e8 83 10 00       	mov    0x1083e8,%eax
  100ebf:	85 c0                	test   %eax,%eax
  100ec1:	75 09                	jne    100ecc <_translate_sc+0x658>
  100ec3:	a1 18 84 10 00       	mov    0x108418,%eax
  100ec8:	85 c0                	test   %eax,%eax
  100eca:	74 0a                	je     100ed6 <_translate_sc+0x662>
  100ecc:	ba 22 00 00 00       	mov    $0x22,%edx
  100ed1:	e9 d6 fa ff ff       	jmp    1009ac <_translate_sc+0x138>
  100ed6:	ba 27 00 00 00       	mov    $0x27,%edx
  100edb:	e9 cc fa ff ff       	jmp    1009ac <_translate_sc+0x138>
  100ee0:	ba 7e 00 00 00       	mov    $0x7e,%edx
  100ee5:	e9 c2 fa ff ff       	jmp    1009ac <_translate_sc+0x138>
  100eea:	a1 e8 83 10 00       	mov    0x1083e8,%eax
  100eef:	85 c0                	test   %eax,%eax
  100ef1:	75 0a                	jne    100efd <_translate_sc+0x689>
  100ef3:	8b 0d 18 84 10 00    	mov    0x108418,%ecx
  100ef9:	85 c9                	test   %ecx,%ecx
  100efb:	74 0a                	je     100f07 <_translate_sc+0x693>
  100efd:	ba 7c 00 00 00       	mov    $0x7c,%edx
  100f02:	e9 a5 fa ff ff       	jmp    1009ac <_translate_sc+0x138>
  100f07:	ba 5c 00 00 00       	mov    $0x5c,%edx
  100f0c:	e9 9b fa ff ff       	jmp    1009ac <_translate_sc+0x138>
  100f11:	a1 e8 83 10 00       	mov    0x1083e8,%eax
  100f16:	85 c0                	test   %eax,%eax
  100f18:	75 0a                	jne    100f24 <_translate_sc+0x6b0>
  100f1a:	8b 0d 18 84 10 00    	mov    0x108418,%ecx
  100f20:	85 c9                	test   %ecx,%ecx
  100f22:	74 0a                	je     100f2e <_translate_sc+0x6ba>
  100f24:	ba 5a 00 00 00       	mov    $0x5a,%edx
  100f29:	e9 7e fa ff ff       	jmp    1009ac <_translate_sc+0x138>
  100f2e:	ba 7a 00 00 00       	mov    $0x7a,%edx
  100f33:	e9 74 fa ff ff       	jmp    1009ac <_translate_sc+0x138>
  100f38:	8b 15 e8 83 10 00    	mov    0x1083e8,%edx
  100f3e:	85 d2                	test   %edx,%edx
  100f40:	75 09                	jne    100f4b <_translate_sc+0x6d7>
  100f42:	a1 18 84 10 00       	mov    0x108418,%eax
  100f47:	85 c0                	test   %eax,%eax
  100f49:	74 0a                	je     100f55 <_translate_sc+0x6e1>
  100f4b:	ba 58 00 00 00       	mov    $0x58,%edx
  100f50:	e9 57 fa ff ff       	jmp    1009ac <_translate_sc+0x138>
  100f55:	ba 78 00 00 00       	mov    $0x78,%edx
  100f5a:	e9 4d fa ff ff       	jmp    1009ac <_translate_sc+0x138>
  100f5f:	a1 e8 83 10 00       	mov    0x1083e8,%eax
  100f64:	85 c0                	test   %eax,%eax
  100f66:	75 09                	jne    100f71 <_translate_sc+0x6fd>
  100f68:	a1 18 84 10 00       	mov    0x108418,%eax
  100f6d:	85 c0                	test   %eax,%eax
  100f6f:	74 0a                	je     100f7b <_translate_sc+0x707>
  100f71:	ba 43 00 00 00       	mov    $0x43,%edx
  100f76:	e9 31 fa ff ff       	jmp    1009ac <_translate_sc+0x138>
  100f7b:	ba 63 00 00 00       	mov    $0x63,%edx
  100f80:	e9 27 fa ff ff       	jmp    1009ac <_translate_sc+0x138>
  100f85:	a1 e8 83 10 00       	mov    0x1083e8,%eax
  100f8a:	85 c0                	test   %eax,%eax
  100f8c:	75 09                	jne    100f97 <_translate_sc+0x723>
  100f8e:	a1 18 84 10 00       	mov    0x108418,%eax
  100f93:	85 c0                	test   %eax,%eax
  100f95:	74 0a                	je     100fa1 <_translate_sc+0x72d>
  100f97:	ba 56 00 00 00       	mov    $0x56,%edx
  100f9c:	e9 0b fa ff ff       	jmp    1009ac <_translate_sc+0x138>
  100fa1:	ba 76 00 00 00       	mov    $0x76,%edx
  100fa6:	e9 01 fa ff ff       	jmp    1009ac <_translate_sc+0x138>
  100fab:	a1 e8 83 10 00       	mov    0x1083e8,%eax
  100fb0:	85 c0                	test   %eax,%eax
  100fb2:	75 0a                	jne    100fbe <_translate_sc+0x74a>
  100fb4:	8b 0d 18 84 10 00    	mov    0x108418,%ecx
  100fba:	85 c9                	test   %ecx,%ecx
  100fbc:	74 0a                	je     100fc8 <_translate_sc+0x754>
  100fbe:	ba 42 00 00 00       	mov    $0x42,%edx
  100fc3:	e9 e4 f9 ff ff       	jmp    1009ac <_translate_sc+0x138>
  100fc8:	ba 62 00 00 00       	mov    $0x62,%edx
  100fcd:	e9 da f9 ff ff       	jmp    1009ac <_translate_sc+0x138>
  100fd2:	8b 15 e8 83 10 00    	mov    0x1083e8,%edx
  100fd8:	85 d2                	test   %edx,%edx
  100fda:	75 09                	jne    100fe5 <_translate_sc+0x771>
  100fdc:	a1 18 84 10 00       	mov    0x108418,%eax
  100fe1:	85 c0                	test   %eax,%eax
  100fe3:	74 0a                	je     100fef <_translate_sc+0x77b>
  100fe5:	ba 4e 00 00 00       	mov    $0x4e,%edx
  100fea:	e9 bd f9 ff ff       	jmp    1009ac <_translate_sc+0x138>
  100fef:	ba 6e 00 00 00       	mov    $0x6e,%edx
  100ff4:	e9 b3 f9 ff ff       	jmp    1009ac <_translate_sc+0x138>
  100ff9:	a1 e8 83 10 00       	mov    0x1083e8,%eax
  100ffe:	85 c0                	test   %eax,%eax
  101000:	75 09                	jne    10100b <_translate_sc+0x797>
  101002:	a1 18 84 10 00       	mov    0x108418,%eax
  101007:	85 c0                	test   %eax,%eax
  101009:	74 0a                	je     101015 <_translate_sc+0x7a1>
  10100b:	ba 4d 00 00 00       	mov    $0x4d,%edx
  101010:	e9 97 f9 ff ff       	jmp    1009ac <_translate_sc+0x138>
  101015:	ba 6d 00 00 00       	mov    $0x6d,%edx
  10101a:	e9 8d f9 ff ff       	jmp    1009ac <_translate_sc+0x138>
  10101f:	a1 e8 83 10 00       	mov    0x1083e8,%eax
  101024:	85 c0                	test   %eax,%eax
  101026:	75 09                	jne    101031 <_translate_sc+0x7bd>
  101028:	a1 18 84 10 00       	mov    0x108418,%eax
  10102d:	85 c0                	test   %eax,%eax
  10102f:	74 0a                	je     10103b <_translate_sc+0x7c7>
  101031:	ba 3c 00 00 00       	mov    $0x3c,%edx
  101036:	e9 71 f9 ff ff       	jmp    1009ac <_translate_sc+0x138>
  10103b:	ba 2c 00 00 00       	mov    $0x2c,%edx
  101040:	e9 67 f9 ff ff       	jmp    1009ac <_translate_sc+0x138>
  101045:	8b 15 e8 83 10 00    	mov    0x1083e8,%edx
  10104b:	85 d2                	test   %edx,%edx
  10104d:	75 09                	jne    101058 <_translate_sc+0x7e4>
  10104f:	a1 18 84 10 00       	mov    0x108418,%eax
  101054:	85 c0                	test   %eax,%eax
  101056:	74 0a                	je     101062 <_translate_sc+0x7ee>
  101058:	ba 3e 00 00 00       	mov    $0x3e,%edx
  10105d:	e9 4a f9 ff ff       	jmp    1009ac <_translate_sc+0x138>
  101062:	ba 2e 00 00 00       	mov    $0x2e,%edx
  101067:	e9 40 f9 ff ff       	jmp    1009ac <_translate_sc+0x138>
  10106c:	a1 e8 83 10 00       	mov    0x1083e8,%eax
  101071:	85 c0                	test   %eax,%eax
  101073:	75 09                	jne    10107e <_translate_sc+0x80a>
  101075:	a1 18 84 10 00       	mov    0x108418,%eax
  10107a:	85 c0                	test   %eax,%eax
  10107c:	74 0a                	je     101088 <_translate_sc+0x814>
  10107e:	ba 3f 00 00 00       	mov    $0x3f,%edx
  101083:	e9 24 f9 ff ff       	jmp    1009ac <_translate_sc+0x138>
  101088:	ba 2f 00 00 00       	mov    $0x2f,%edx
  10108d:	e9 1a f9 ff ff       	jmp    1009ac <_translate_sc+0x138>
  101092:	ba 2a 00 00 00       	mov    $0x2a,%edx
  101097:	e9 10 f9 ff ff       	jmp    1009ac <_translate_sc+0x138>
  10109c:	ba 20 00 00 00       	mov    $0x20,%edx
  1010a1:	e9 06 f9 ff ff       	jmp    1009ac <_translate_sc+0x138>
  1010a6:	a1 54 84 10 00       	mov    0x108454,%eax
  1010ab:	31 d2                	xor    %edx,%edx
  1010ad:	85 c0                	test   %eax,%eax
  1010af:	0f 84 f7 f8 ff ff    	je     1009ac <_translate_sc+0x138>
  1010b5:	a1 00 80 10 00       	mov    0x108000,%eax
  1010ba:	85 c0                	test   %eax,%eax
  1010bc:	0f 85 ea f8 ff ff    	jne    1009ac <_translate_sc+0x138>
  1010c2:	ba 37 00 00 00       	mov    $0x37,%edx
  1010c7:	e9 e0 f8 ff ff       	jmp    1009ac <_translate_sc+0x138>
  1010cc:	a1 54 84 10 00       	mov    0x108454,%eax
  1010d1:	31 d2                	xor    %edx,%edx
  1010d3:	85 c0                	test   %eax,%eax
  1010d5:	0f 84 d1 f8 ff ff    	je     1009ac <_translate_sc+0x138>
  1010db:	8b 0d 00 80 10 00    	mov    0x108000,%ecx
  1010e1:	85 c9                	test   %ecx,%ecx
  1010e3:	0f 85 c3 f8 ff ff    	jne    1009ac <_translate_sc+0x138>
  1010e9:	ba 38 00 00 00       	mov    $0x38,%edx
  1010ee:	e9 b9 f8 ff ff       	jmp    1009ac <_translate_sc+0x138>
  1010f3:	a1 54 84 10 00       	mov    0x108454,%eax
  1010f8:	31 d2                	xor    %edx,%edx
  1010fa:	85 c0                	test   %eax,%eax
  1010fc:	0f 84 aa f8 ff ff    	je     1009ac <_translate_sc+0x138>
  101102:	a1 00 80 10 00       	mov    0x108000,%eax
  101107:	85 c0                	test   %eax,%eax
  101109:	0f 85 9d f8 ff ff    	jne    1009ac <_translate_sc+0x138>
  10110f:	ba 39 00 00 00       	mov    $0x39,%edx
  101114:	e9 93 f8 ff ff       	jmp    1009ac <_translate_sc+0x138>
  101119:	ba 2d 00 00 00       	mov    $0x2d,%edx
  10111e:	e9 89 f8 ff ff       	jmp    1009ac <_translate_sc+0x138>
  101123:	a1 54 84 10 00       	mov    0x108454,%eax
  101128:	31 d2                	xor    %edx,%edx
  10112a:	85 c0                	test   %eax,%eax
  10112c:	0f 84 7a f8 ff ff    	je     1009ac <_translate_sc+0x138>
  101132:	8b 0d 00 80 10 00    	mov    0x108000,%ecx
  101138:	85 c9                	test   %ecx,%ecx
  10113a:	0f 85 6c f8 ff ff    	jne    1009ac <_translate_sc+0x138>
  101140:	ba 34 00 00 00       	mov    $0x34,%edx
  101145:	e9 62 f8 ff ff       	jmp    1009ac <_translate_sc+0x138>
  10114a:	a1 54 84 10 00       	mov    0x108454,%eax
  10114f:	31 d2                	xor    %edx,%edx
  101151:	85 c0                	test   %eax,%eax
  101153:	0f 84 53 f8 ff ff    	je     1009ac <_translate_sc+0x138>
  101159:	a1 00 80 10 00       	mov    0x108000,%eax
  10115e:	85 c0                	test   %eax,%eax
  101160:	0f 85 46 f8 ff ff    	jne    1009ac <_translate_sc+0x138>
  101166:	ba 35 00 00 00       	mov    $0x35,%edx
  10116b:	e9 3c f8 ff ff       	jmp    1009ac <_translate_sc+0x138>
  101170:	a1 54 84 10 00       	mov    0x108454,%eax
  101175:	31 d2                	xor    %edx,%edx
  101177:	85 c0                	test   %eax,%eax
  101179:	0f 84 2d f8 ff ff    	je     1009ac <_translate_sc+0x138>
  10117f:	8b 0d 00 80 10 00    	mov    0x108000,%ecx
  101185:	85 c9                	test   %ecx,%ecx
  101187:	0f 85 1f f8 ff ff    	jne    1009ac <_translate_sc+0x138>
  10118d:	ba 36 00 00 00       	mov    $0x36,%edx
  101192:	e9 15 f8 ff ff       	jmp    1009ac <_translate_sc+0x138>
  101197:	ba 2b 00 00 00       	mov    $0x2b,%edx
  10119c:	e9 0b f8 ff ff       	jmp    1009ac <_translate_sc+0x138>
  1011a1:	a1 54 84 10 00       	mov    0x108454,%eax
  1011a6:	31 d2                	xor    %edx,%edx
  1011a8:	85 c0                	test   %eax,%eax
  1011aa:	0f 84 fc f7 ff ff    	je     1009ac <_translate_sc+0x138>
  1011b0:	a1 00 80 10 00       	mov    0x108000,%eax
  1011b5:	85 c0                	test   %eax,%eax
  1011b7:	0f 85 ef f7 ff ff    	jne    1009ac <_translate_sc+0x138>
  1011bd:	ba 31 00 00 00       	mov    $0x31,%edx
  1011c2:	e9 e5 f7 ff ff       	jmp    1009ac <_translate_sc+0x138>
  1011c7:	a1 54 84 10 00       	mov    0x108454,%eax
  1011cc:	31 d2                	xor    %edx,%edx
  1011ce:	85 c0                	test   %eax,%eax
  1011d0:	0f 84 d6 f7 ff ff    	je     1009ac <_translate_sc+0x138>
  1011d6:	8b 0d 00 80 10 00    	mov    0x108000,%ecx
  1011dc:	85 c9                	test   %ecx,%ecx
  1011de:	0f 85 c8 f7 ff ff    	jne    1009ac <_translate_sc+0x138>
  1011e4:	ba 32 00 00 00       	mov    $0x32,%edx
  1011e9:	e9 be f7 ff ff       	jmp    1009ac <_translate_sc+0x138>
  1011ee:	a1 54 84 10 00       	mov    0x108454,%eax
  1011f3:	31 d2                	xor    %edx,%edx
  1011f5:	85 c0                	test   %eax,%eax
  1011f7:	0f 84 af f7 ff ff    	je     1009ac <_translate_sc+0x138>
  1011fd:	a1 00 80 10 00       	mov    0x108000,%eax
  101202:	85 c0                	test   %eax,%eax
  101204:	0f 85 a2 f7 ff ff    	jne    1009ac <_translate_sc+0x138>
  10120a:	ba 33 00 00 00       	mov    $0x33,%edx
  10120f:	e9 98 f7 ff ff       	jmp    1009ac <_translate_sc+0x138>
  101214:	a1 54 84 10 00       	mov    0x108454,%eax
  101219:	31 d2                	xor    %edx,%edx
  10121b:	85 c0                	test   %eax,%eax
  10121d:	0f 84 89 f7 ff ff    	je     1009ac <_translate_sc+0x138>
  101223:	8b 0d 00 80 10 00    	mov    0x108000,%ecx
  101229:	85 c9                	test   %ecx,%ecx
  10122b:	0f 85 7b f7 ff ff    	jne    1009ac <_translate_sc+0x138>
  101231:	ba 30 00 00 00       	mov    $0x30,%edx
  101236:	e9 71 f7 ff ff       	jmp    1009ac <_translate_sc+0x138>
  10123b:	a1 54 84 10 00       	mov    0x108454,%eax
  101240:	31 d2                	xor    %edx,%edx
  101242:	85 c0                	test   %eax,%eax
  101244:	0f 84 62 f7 ff ff    	je     1009ac <_translate_sc+0x138>
  10124a:	8b 0d 00 80 10 00    	mov    0x108000,%ecx
  101250:	85 c9                	test   %ecx,%ecx
  101252:	0f 85 54 f7 ff ff    	jne    1009ac <_translate_sc+0x138>
  101258:	ba 2e 00 00 00       	mov    $0x2e,%edx
  10125d:	e9 4a f7 ff ff       	jmp    1009ac <_translate_sc+0x138>
  101262:	89 f6                	mov    %esi,%esi
  101264:	31 c0                	xor    %eax,%eax
  101266:	31 d2                	xor    %edx,%edx
  101268:	85 c0                	test   %eax,%eax
  10126a:	0f 85 34 f6 ff ff    	jne    1008a4 <_translate_sc+0x30>
  101270:	e9 37 f7 ff ff       	jmp    1009ac <_translate_sc+0x138>
  101275:	8d 76 00             	lea    0x0(%esi),%esi
  101278:	8b 15 40 85 10 00    	mov    0x108540,%edx
  10127e:	4a                   	dec    %edx
  10127f:	0f 89 01 f6 ff ff    	jns    100886 <_translate_sc+0x12>
  101285:	31 c0                	xor    %eax,%eax
  101287:	c7 05 40 85 10 00 00 	movl   $0x0,0x108540
  10128e:	00 00 00 
  101291:	e9 60 f6 ff ff       	jmp    1008f6 <_translate_sc+0x82>
  101296:	89 f6                	mov    %esi,%esi

00101298 <handle_meta_key>:

/**
 * handle_meta_key()
 *
 * I'll pretty this up later
 */
void handle_meta_key(unsigned k)
{
  101298:	55                   	push   %ebp
  101299:	89 e5                	mov    %esp,%ebp
  10129b:	83 ec 08             	sub    $0x8,%esp
	int i;
	k = k; /* to shut gcc up */

	/**
	 * Check for the infamous three finger salute
	 */
	if((keys[KEY_RCTRL] || keys[KEY_LCTRL]) &&
  10129e:	8b 15 b4 83 10 00    	mov    0x1083b4,%edx
  1012a4:	85 d2                	test   %edx,%edx
  1012a6:	74 69                	je     101311 <handle_meta_key+0x79>
  1012a8:	8b 15 20 84 10 00    	mov    0x108420,%edx
  1012ae:	85 d2                	test   %edx,%edx
  1012b0:	74 0a                	je     1012bc <handle_meta_key+0x24>
  1012b2:	a1 8c 84 10 00       	mov    0x10848c,%eax
  1012b7:	85 c0                	test   %eax,%eax
  1012b9:	75 51                	jne    10130c <handle_meta_key+0x74>
  1012bb:	90                   	nop    
			(keys[KEY_RALT] || keys[KEY_LALT]) &&
			keys[KEY_DEL])
	{
		/**
		 * FIXME
		 *
		 * This should call _send_signal()
		 */
		reboot();
	}

	/**
	 * Check for Alt + F1-F12 for virtual terminals
	 */
	for(i = 0; i < 10; i++)
  1012bc:	31 c0                	xor    %eax,%eax
  1012be:	b9 40 83 10 00       	mov    $0x108340,%ecx
  1012c3:	90                   	nop    
	{
		if((keys[KEY_LALT] || keys[KEY_RALT]) && keys[i + KEY_F1])
  1012c4:	85 d2                	test   %edx,%edx
  1012c6:	74 0a                	je     1012d2 <handle_meta_key+0x3a>
  1012c8:	83 bc 81 ec 00 00 00 	cmpl   $0x0,0xec(%ecx,%eax,4)
  1012cf:	00 
  1012d0:	75 35                	jne    101307 <handle_meta_key+0x6f>
  1012d2:	40                   	inc    %eax
  1012d3:	83 f8 09             	cmp    $0x9,%eax
  1012d6:	7e ec                	jle    1012c4 <handle_meta_key+0x2c>
		{
			select_vc(i);
			return;
		}
	}
	
	if((keys[KEY_LALT] || keys[KEY_RALT]) && keys[KEY_F11])
  1012d8:	85 d2                	test   %edx,%edx
  1012da:	74 13                	je     1012ef <handle_meta_key+0x57>
  1012dc:	8b 15 9c 84 10 00    	mov    0x10849c,%edx
  1012e2:	85 d2                	test   %edx,%edx
  1012e4:	75 18                	jne    1012fe <handle_meta_key+0x66>
	{
		select_vc(10);
		return;
	}

	if((keys[KEY_LALT] || keys[KEY_RALT]) && keys[KEY_F12])
  1012e6:	a1 a0 84 10 00       	mov    0x1084a0,%eax
  1012eb:	85 c0                	test   %eax,%eax
  1012ed:	75 02                	jne    1012f1 <handle_meta_key+0x59>
	{
		select_vc(11);
		return;
	}
}
  1012ef:	c9                   	leave  
  1012f0:	c3                   	ret    
  1012f1:	c7 45 08 0b 00 00 00 	movl   $0xb,0x8(%ebp)
  1012f8:	c9                   	leave  
  1012f9:	e9 06 35 00 00       	jmp    104804 <select_vc>
  1012fe:	c7 45 08 0a 00 00 00 	movl   $0xa,0x8(%ebp)
  101305:	eb f1                	jmp    1012f8 <handle_meta_key+0x60>
  101307:	89 45 08             	mov    %eax,0x8(%ebp)
  10130a:	eb ec                	jmp    1012f8 <handle_meta_key+0x60>
  10130c:	e8 d3 f4 ff ff       	call   1007e4 <reboot>
  101311:	8b 15 20 84 10 00    	mov    0x108420,%edx
  101317:	eb a3                	jmp    1012bc <handle_meta_key+0x24>
  101319:	8d 76 00             	lea    0x0(%esi),%esi

0010131c <keyboard_irq>:

/**
 * keyboard_irq()
 *
 * Called when a keyboard interrupt is generated.
 */
void keyboard_irq(void)
{
  10131c:	55                   	push   %ebp
  10131d:	89 e5                	mov    %esp,%ebp
  10131f:	53                   	push   %ebx
  101320:	83 ec 10             	sub    $0x10,%esp
	register char a;
	unsigned c;
	unsigned short kbdstat;

	rawkey = inportb(0x60);
  101323:	6a 60                	push   $0x60
  101325:	e8 ea 3c 00 00       	call   105014 <inportb>
  10132a:	a3 20 83 10 00       	mov    %eax,0x108320
	outportb(0x61, (a=inportb(0x61)|0x82));
  10132f:	c7 04 24 61 00 00 00 	movl   $0x61,(%esp,1)
  101336:	e8 d9 3c 00 00       	call   105014 <inportb>
  10133b:	83 c8 82             	or     $0xffffff82,%eax
  10133e:	59                   	pop    %ecx
  10133f:	5b                   	pop    %ebx
  101340:	0f be d8             	movsbl %al,%ebx
  101343:	53                   	push   %ebx
  101344:	6a 61                	push   $0x61
  101346:	e8 69 3d 00 00       	call   1050b4 <outportb>
	outportb(0x61, a & 0x7F);
  10134b:	58                   	pop    %eax
  10134c:	5a                   	pop    %edx
  10134d:	83 e3 7f             	and    $0x7f,%ebx
  101350:	53                   	push   %ebx
  101351:	6a 61                	push   $0x61
  101353:	e8 5c 3d 00 00       	call   1050b4 <outportb>
	
	/**
	 * If it's less than 0x80 then it's definatelly
	 * a make code or a repeat code
	 */
	if(rawkey < 0x80)
  101358:	8b 0d 20 83 10 00    	mov    0x108320,%ecx
  10135e:	83 c4 10             	add    $0x10,%esp
  101361:	83 f9 7f             	cmp    $0x7f,%ecx
  101364:	7f 6a                	jg     1013d0 <keyboard_irq+0xb4>
	{
		/**
		 * We don't want to gunk up the numlock key
		 * because we will define it's state in the
		 * break code a bit later
		 */
		if((rawkey != KEYP_NUMLCK) && (rawkey != KEY_SCRLCK) && (rawkey != KEY_CAPS))
  101366:	8d 41 bb             	lea    0xffffffbb(%ecx),%eax
  101369:	83 f8 01             	cmp    $0x1,%eax
  10136c:	76 10                	jbe    10137e <keyboard_irq+0x62>
  10136e:	83 f9 3a             	cmp    $0x3a,%ecx
  101371:	74 0b                	je     10137e <keyboard_irq+0x62>
			keys[rawkey] = 1;
  101373:	c7 04 8d 40 83 10 00 	movl   $0x1,0x108340(,%ecx,4)
  10137a:	01 00 00 00 

		keyDown(rawkey);
  10137e:	83 ec 0c             	sub    $0xc,%esp
  101381:	ff 35 20 83 10 00    	pushl  0x108320
  101387:	e8 c4 ee ff ff       	call   100250 <keyDown>
  10138c:	58                   	pop    %eax
	}
	else /* rawkey >= 0x80 */
	{
		if(rawkey == 0xE0)
		{
			/**
			 * It's either a make code, break code, or repeat code
			 */
			rawkey = inportb(0x60);
			outportb(0x61, (a=inportb(0x61)|0x82));
			outportb(0x61, a & 0x7F);

			if(rawkey < 0x80)
			{
				/**
				 * Ok, it's a make code or repeat code for the numeric
				 * keypad (gray keys)
				 */

				keys[rawkey] = 1;

				keyDown(rawkey);
			}
			else /* rawkey >= 0x80 */
			{
				/**
				 * It's either a make code for the numeric keypad or
				 * a break code for the numeric keypad.
				 */
				if(rawkey == 0x2A)
				{
					/**
					 * Ok, we have a make code for the numeric keypad
					 * and NUMLOCK is on. The second byte is what we
					 * want since what we have so far is this:
					 *
					 * 0xE0 0x2A
					 */
					rawkey = inportb(0x60);
					outportb(0x61, (a=inportb(0x61)|0x82));
					outportb(0x61, a & 0x7F);

					rawkey = inportb(0x60);
					outportb(0x61, (a=inportb(0x61)|0x82));
					outportb(0x61, a & 0x7F);

					keys[rawkey] = 1;

					keyDown(rawkey);
				}
				else
				{
					/**
					 * It's a break code from the numeric keypad.
					 */
					keys[rawkey] = 0;

					keyUp(rawkey);
				}
			}
		}
		else /* rawkey != 0xE0 */
		{
			/**
			 * It's a break code
			 *
			 * Make sure we toggle the numlock, scroll lock, and caps lock key.
			 */
			if(((rawkey - 0x80) == KEYP_NUMLCK) ||
					((rawkey - 0x80) == KEY_SCRLCK) ||
					((rawkey - 0x80) == KEY_CAPS))
			{
				keys[rawkey - 0x80] = !keys[rawkey - 0x80];

				kbdstat = 0;
				if(keys[KEY_SCRLCK])
					kbdstat |= 1;
				if(keys[KEYP_NUMLCK])
					kbdstat |= 2;
				if(keys[KEY_CAPS])
					kbdstat |= 4;

				_write_kb(0x60, 0xED);
				_write_kb(0x60, kbdstat);
				outportb(0x20, 0x20);

				keyUp(rawkey);
				return;
			}
			
			keys[rawkey - 0x80] = 0;

			keyUp(rawkey);
		}
	}

	c = _translate_sc(rawkey);
  10138d:	ff 35 20 83 10 00    	pushl  0x108320
  101393:	e8 dc f4 ff ff       	call   100874 <_translate_sc>

	if(c != 0)
  101398:	83 c4 10             	add    $0x10,%esp
  10139b:	85 c0                	test   %eax,%eax
  10139d:	74 21                	je     1013c0 <keyboard_irq+0xa4>
		printf("%c", c);
  10139f:	83 ec 08             	sub    $0x8,%esp
  1013a2:	50                   	push   %eax
  1013a3:	68 e5 51 10 00       	push   $0x1051e5
  1013a8:	e8 27 3d 00 00       	call   1050d4 <printf>
  1013ad:	59                   	pop    %ecx
  1013ae:	5b                   	pop    %ebx
	else
	{
		/**
		 * We need to check for meta-key-crap here
		 */
		handle_meta_key(rawkey);
	}

	//enable();
	outportb(0x20, 0x20);
  1013af:	6a 20                	push   $0x20
  1013b1:	6a 20                	push   $0x20
  1013b3:	e8 fc 3c 00 00       	call   1050b4 <outportb>
}
  1013b8:	8b 5d fc             	mov    0xfffffffc(%ebp),%ebx
  1013bb:	c9                   	leave  
  1013bc:	c3                   	ret    
  1013bd:	8d 76 00             	lea    0x0(%esi),%esi
  1013c0:	83 ec 0c             	sub    $0xc,%esp
  1013c3:	ff 35 20 83 10 00    	pushl  0x108320
  1013c9:	e8 ca fe ff ff       	call   101298 <handle_meta_key>
  1013ce:	eb dd                	jmp    1013ad <keyboard_irq+0x91>
  1013d0:	81 f9 e0 00 00 00    	cmp    $0xe0,%ecx
  1013d6:	0f 84 a5 00 00 00    	je     101481 <keyboard_irq+0x165>
  1013dc:	8d 81 3b ff ff ff    	lea    0xffffff3b(%ecx),%eax
  1013e2:	83 f8 01             	cmp    $0x1,%eax
  1013e5:	76 21                	jbe    101408 <keyboard_irq+0xec>
  1013e7:	81 f9 ba 00 00 00    	cmp    $0xba,%ecx
  1013ed:	74 19                	je     101408 <keyboard_irq+0xec>
  1013ef:	83 ec 0c             	sub    $0xc,%esp
  1013f2:	c7 04 8d 40 81 10 00 	movl   $0x0,0x108140(,%ecx,4)
  1013f9:	00 00 00 00 
  1013fd:	51                   	push   %ecx
  1013fe:	e8 55 ee ff ff       	call   100258 <keyUp>
  101403:	eb 87                	jmp    10138c <keyboard_irq+0x70>
  101405:	8d 76 00             	lea    0x0(%esi),%esi
  101408:	ba 40 83 10 00       	mov    $0x108340,%edx
  10140d:	31 c0                	xor    %eax,%eax
  10140f:	83 bc 8a 00 fe ff ff 	cmpl   $0x0,0xfffffe00(%edx,%ecx,4)
  101416:	00 
  101417:	0f 94 c0             	sete   %al
  10141a:	89 84 8a 00 fe ff ff 	mov    %eax,0xfffffe00(%edx,%ecx,4)
  101421:	a1 58 84 10 00       	mov    0x108458,%eax
  101426:	31 db                	xor    %ebx,%ebx
  101428:	85 c0                	test   %eax,%eax
  10142a:	74 05                	je     101431 <keyboard_irq+0x115>
  10142c:	bb 01 00 00 00       	mov    $0x1,%ebx
  101431:	a1 54 84 10 00       	mov    0x108454,%eax
  101436:	85 c0                	test   %eax,%eax
  101438:	74 03                	je     10143d <keyboard_irq+0x121>
  10143a:	83 cb 02             	or     $0x2,%ebx
  10143d:	a1 28 84 10 00       	mov    0x108428,%eax
  101442:	85 c0                	test   %eax,%eax
  101444:	74 03                	je     101449 <keyboard_irq+0x12d>
  101446:	83 cb 04             	or     $0x4,%ebx
  101449:	83 ec 08             	sub    $0x8,%esp
  10144c:	68 ed 00 00 00       	push   $0xed
  101451:	6a 60                	push   $0x60
  101453:	e8 d4 f3 ff ff       	call   10082c <_write_kb>
  101458:	59                   	pop    %ecx
  101459:	58                   	pop    %eax
  10145a:	0f b7 c3             	movzwl %bx,%eax
  10145d:	50                   	push   %eax
  10145e:	6a 60                	push   $0x60
  101460:	e8 c7 f3 ff ff       	call   10082c <_write_kb>
  101465:	58                   	pop    %eax
  101466:	5a                   	pop    %edx
  101467:	6a 20                	push   $0x20
  101469:	6a 20                	push   $0x20
  10146b:	e8 44 3c 00 00       	call   1050b4 <outportb>
  101470:	58                   	pop    %eax
  101471:	ff 35 20 83 10 00    	pushl  0x108320
  101477:	e8 dc ed ff ff       	call   100258 <keyUp>
  10147c:	e9 37 ff ff ff       	jmp    1013b8 <keyboard_irq+0x9c>
  101481:	83 ec 0c             	sub    $0xc,%esp
  101484:	6a 60                	push   $0x60
  101486:	e8 89 3b 00 00       	call   105014 <inportb>
  10148b:	a3 20 83 10 00       	mov    %eax,0x108320
  101490:	c7 04 24 61 00 00 00 	movl   $0x61,(%esp,1)
  101497:	e8 78 3b 00 00       	call   105014 <inportb>
  10149c:	83 c8 82             	or     $0xffffff82,%eax
  10149f:	59                   	pop    %ecx
  1014a0:	5b                   	pop    %ebx
  1014a1:	0f be d8             	movsbl %al,%ebx
  1014a4:	53                   	push   %ebx
  1014a5:	6a 61                	push   $0x61
  1014a7:	e8 08 3c 00 00       	call   1050b4 <outportb>
  1014ac:	58                   	pop    %eax
  1014ad:	5a                   	pop    %edx
  1014ae:	83 e3 7f             	and    $0x7f,%ebx
  1014b1:	53                   	push   %ebx
  1014b2:	6a 61                	push   $0x61
  1014b4:	e8 fb 3b 00 00       	call   1050b4 <outportb>
  1014b9:	a1 20 83 10 00       	mov    0x108320,%eax
  1014be:	83 c4 10             	add    $0x10,%esp
  1014c1:	83 f8 7f             	cmp    $0x7f,%eax
  1014c4:	0f 8e a2 00 00 00    	jle    10156c <keyboard_irq+0x250>
  1014ca:	83 f8 2a             	cmp    $0x2a,%eax
  1014cd:	74 14                	je     1014e3 <keyboard_irq+0x1c7>
  1014cf:	83 ec 0c             	sub    $0xc,%esp
  1014d2:	50                   	push   %eax
  1014d3:	c7 04 85 40 83 10 00 	movl   $0x0,0x108340(,%eax,4)
  1014da:	00 00 00 00 
  1014de:	e9 1b ff ff ff       	jmp    1013fe <keyboard_irq+0xe2>
  1014e3:	83 ec 0c             	sub    $0xc,%esp
  1014e6:	6a 60                	push   $0x60
  1014e8:	e8 27 3b 00 00       	call   105014 <inportb>
  1014ed:	a3 20 83 10 00       	mov    %eax,0x108320
  1014f2:	c7 04 24 61 00 00 00 	movl   $0x61,(%esp,1)
  1014f9:	e8 16 3b 00 00       	call   105014 <inportb>
  1014fe:	83 c8 82             	or     $0xffffff82,%eax
  101501:	59                   	pop    %ecx
  101502:	5b                   	pop    %ebx
  101503:	0f be d8             	movsbl %al,%ebx
  101506:	53                   	push   %ebx
  101507:	6a 61                	push   $0x61
  101509:	e8 a6 3b 00 00       	call   1050b4 <outportb>
  10150e:	58                   	pop    %eax
  10150f:	5a                   	pop    %edx
  101510:	83 e3 7f             	and    $0x7f,%ebx
  101513:	53                   	push   %ebx
  101514:	6a 61                	push   $0x61
  101516:	e8 99 3b 00 00       	call   1050b4 <outportb>
  10151b:	c7 04 24 60 00 00 00 	movl   $0x60,(%esp,1)
  101522:	e8 ed 3a 00 00       	call   105014 <inportb>
  101527:	a3 20 83 10 00       	mov    %eax,0x108320
  10152c:	c7 04 24 61 00 00 00 	movl   $0x61,(%esp,1)
  101533:	e8 dc 3a 00 00       	call   105014 <inportb>
  101538:	83 c8 82             	or     $0xffffff82,%eax
  10153b:	5a                   	pop    %edx
  10153c:	59                   	pop    %ecx
  10153d:	0f be d8             	movsbl %al,%ebx
  101540:	53                   	push   %ebx
  101541:	6a 61                	push   $0x61
  101543:	e8 6c 3b 00 00       	call   1050b4 <outportb>
  101548:	59                   	pop    %ecx
  101549:	58                   	pop    %eax
  10154a:	83 e3 7f             	and    $0x7f,%ebx
  10154d:	53                   	push   %ebx
  10154e:	6a 61                	push   $0x61
  101550:	e8 5f 3b 00 00       	call   1050b4 <outportb>
  101555:	a1 20 83 10 00       	mov    0x108320,%eax
  10155a:	5a                   	pop    %edx
  10155b:	c7 04 85 40 83 10 00 	movl   $0x1,0x108340(,%eax,4)
  101562:	01 00 00 00 
  101566:	50                   	push   %eax
  101567:	e9 1b fe ff ff       	jmp    101387 <keyboard_irq+0x6b>
  10156c:	c7 04 85 40 83 10 00 	movl   $0x1,0x108340(,%eax,4)
  101573:	01 00 00 00 
  101577:	83 ec 0c             	sub    $0xc,%esp
  10157a:	eb ea                	jmp    101566 <keyboard_irq+0x24a>

0010157c <init_keyboard>:

/**
 * init_keyboard()
 *
 */
void init_keyboard(void)
{
  10157c:	55                   	push   %ebp
  10157d:	89 e5                	mov    %esp,%ebp
	static unsigned char buffers[KBD_BUF_SIZE * MAX_VC];

	int i;

	//klog("init", "keyboard %2u buf, %2ub each", K_KLOG_PENDING, &_vc[0]);
	for(i = 0; i < MAX_VC; i++)
  10157f:	b9 20 80 10 00       	mov    $0x108020,%ecx
  101584:	83 ec 08             	sub    $0x8,%esp
  101587:	31 d2                	xor    %edx,%edx
  101589:	b8 0b 00 00 00       	mov    $0xb,%eax
	{
		_vc[i].keystrokes.data = buffers + KBD_BUF_SIZE * i;
  10158e:	89 8a e0 a2 19 00    	mov    %ecx,0x19a2e0(%edx)
		_vc[i].keystrokes.size = KBD_BUF_SIZE;
  101594:	c7 82 e4 a2 19 00 40 	movl   $0x40,0x19a2e4(%edx)
  10159b:	00 00 00 
  10159e:	83 c1 40             	add    $0x40,%ecx
  1015a1:	83 c2 34             	add    $0x34,%edx
  1015a4:	48                   	dec    %eax
  1015a5:	79 e7                	jns    10158e <init_keyboard+0x12>
	}

	for(i = 0; i < 128; i++)
  1015a7:	31 c0                	xor    %eax,%eax
  1015a9:	8d 76 00             	lea    0x0(%esi),%esi
		keys[i] = 0;
  1015ac:	c7 04 85 40 83 10 00 	movl   $0x0,0x108340(,%eax,4)
  1015b3:	00 00 00 00 
  1015b7:	40                   	inc    %eax
  1015b8:	83 f8 7f             	cmp    $0x7f,%eax
  1015bb:	7e ef                	jle    1015ac <init_keyboard+0x30>

	makebreak = 0;
	//klog(NULL, K_KLOG_SUCCESS, &_vc[0], NULL);
	//kprintf("init_kbd: %u buffers, %u bytes each\n",
	//	MAX_VC, KBD_BUF_SIZE);
	
	//kprintf("[ Entering Runlevel 0 ].......................................................Ok");
	_vc[0].attrib = 8;
	printf("[ ");
  1015bd:	83 ec 0c             	sub    $0xc,%esp
  1015c0:	68 b6 51 10 00       	push   $0x1051b6
  1015c5:	c7 05 a0 85 10 00 00 	movl   $0x0,0x1085a0
  1015cc:	00 00 00 
  1015cf:	c7 05 f8 a2 19 00 08 	movl   $0x8,0x19a2f8
  1015d6:	00 00 00 
  1015d9:	e8 f6 3a 00 00       	call   1050d4 <printf>
	_vc[0].attrib = 15;
	printf("init: keyboard %2u buf, %2ub each ", MAX_VC, KBD_BUF_SIZE);
  1015de:	83 c4 0c             	add    $0xc,%esp
  1015e1:	6a 40                	push   $0x40
  1015e3:	6a 0c                	push   $0xc
  1015e5:	68 60 58 10 00       	push   $0x105860
  1015ea:	c7 05 f8 a2 19 00 0f 	movl   $0xf,0x19a2f8
  1015f1:	00 00 00 
  1015f4:	e8 db 3a 00 00       	call   1050d4 <printf>
	_vc[0].attrib = 8;
	printf("]...........................................");
  1015f9:	c7 04 24 a0 58 10 00 	movl   $0x1058a0,(%esp,1)
  101600:	c7 05 f8 a2 19 00 08 	movl   $0x8,0x19a2f8
  101607:	00 00 00 
  10160a:	e8 c5 3a 00 00       	call   1050d4 <printf>
	_vc[0].attrib = 2;
	printf("Ok");
  10160f:	c7 04 24 d9 54 10 00 	movl   $0x1054d9,(%esp,1)
  101616:	c7 05 f8 a2 19 00 02 	movl   $0x2,0x19a2f8
  10161d:	00 00 00 
  101620:	e8 af 3a 00 00       	call   1050d4 <printf>
	_vc[0].attrib = 7;
  101625:	c7 05 f8 a2 19 00 07 	movl   $0x7,0x19a2f8
  10162c:	00 00 00 
}
  10162f:	c9                   	leave  
  101630:	c3                   	ret    
	...

00101640 <entry>:
  101640:	a1 00 70 10 00       	mov    0x107000,%eax
  101645:	3d 2a da 44 35       	cmp    $0x3544da2a,%eax
  10164a:	74 0b                	je     101657 <ds_ok>
  10164c:	66 c7 05 00 80 0b 00 	movw   $0x9f44,0xb8000
  101653:	44 9f 
  101655:	eb fe                	jmp    101655 <entry+0x15>

00101657 <ds_ok>:
  101657:	0f 01 15 24 70 10 00 	lgdtl  0x107024
  10165e:	66 b8 10 00          	mov    $0x10,%ax
  101662:	8e d8                	mov    %eax,%ds
  101664:	8e c0                	mov    %eax,%es
  101666:	8e d0                	mov    %eax,%ss
  101668:	8e e0                	mov    %eax,%fs
  10166a:	8e e8                	mov    %eax,%gs
  10166c:	ea 73 16 10 00 18 00 	ljmp   $0x18,$0x101673

00101673 <sbat>:
  101673:	bf 00 80 10 00       	mov    $0x108000,%edi
  101678:	b9 00 b0 19 00       	mov    $0x19b000,%ecx
  10167d:	29 f9                	sub    %edi,%ecx
  10167f:	31 c0                	xor    %eax,%eax
  101681:	f3 aa                	repz stos %al,%es:(%edi)
  101683:	bc a4 95 10 00       	mov    $0x1095a4,%esp
  101688:	b9 00 01 00 00       	mov    $0x100,%ecx
  10168d:	bf 2a 70 10 00       	mov    $0x10702a,%edi
  101692:	be 6b 17 10 00       	mov    $0x10176b,%esi

00101697 <do_idt>:
  101697:	89 f0                	mov    %esi,%eax
  101699:	66 89 07             	mov    %ax,(%edi)
  10169c:	c1 e8 10             	shr    $0x10,%eax
  10169f:	66 89 47 06          	mov    %ax,0x6(%edi)
  1016a3:	81 c7 08 00 00 00    	add    $0x8,%edi
  1016a9:	81 c6 26 00 00 00    	add    $0x26,%esi
  1016af:	e2 e6                	loop   101697 <do_idt>
  1016b1:	0f 01 1d 2a 78 10 00 	lidtl  0x10782a
  1016b8:	68 02 00 00 00       	push   $0x2
  1016bd:	9d                   	popf   
  1016be:	e8 61 2c 00 00       	call   104324 <main>
  1016c3:	eb fe                	jmp    1016c3 <do_idt+0x2c>
  1016c5:	90                   	nop    
  1016c6:	90                   	nop    
  1016c7:	90                   	nop    

001016c8 <mboot>:
  1016c8:	02 b0 ad 1b 03 00    	add    0x31bad(%eax),%dh
  1016ce:	01 00                	add    %eax,(%eax)
  1016d0:	fb                   	sti    
  1016d1:	4f                   	dec    %edi
  1016d2:	51                   	push   %ecx
  1016d3:	e4 c8                	in     $0xc8,%al
  1016d5:	16                   	push   %ss
  1016d6:	10 00                	adc    %al,(%eax)
  1016d8:	00 00                	add    %al,(%eax)
  1016da:	10 00                	adc    %al,(%eax)
  1016dc:	00 80 10 00 00 b0    	add    %al,0xb0000010(%eax)
  1016e2:	19 00                	sbb    %eax,(%eax)
  1016e4:	40                   	inc    %eax
  1016e5:	16                   	push   %ss
  1016e6:	10 00                	adc    %al,(%eax)

001016e8 <all_ints>:
  1016e8:	58                   	pop    %eax
  1016e9:	61                   	popa   
  1016ea:	1f                   	pop    %ds
  1016eb:	07                   	pop    %es
  1016ec:	0f a1                	pop    %fs
  1016ee:	0f a9                	pop    %gs
  1016f0:	81 c4 08 00 00 00    	add    $0x8,%esp
  1016f6:	cf                   	iret   

001016f7 <_getvect>:
  1016f7:	55                   	push   %ebp
  1016f8:	89 e5                	mov    %esp,%ebp
  1016fa:	56                   	push   %esi
  1016fb:	53                   	push   %ebx
  1016fc:	8b 75 08             	mov    0x8(%ebp),%esi
  1016ff:	31 db                	xor    %ebx,%ebx
  101701:	8a 5d 0c             	mov    0xc(%ebp),%bl
  101704:	c1 e3 03             	shl    $0x3,%ebx
  101707:	8a 83 2f 70 10 00    	mov    0x10702f(%ebx),%al
  10170d:	89 06                	mov    %eax,(%esi)
  10170f:	b8 91 17 10 00       	mov    $0x101791,%eax
  101714:	2d 6b 17 10 00       	sub    $0x10176b,%eax
  101719:	f6 65 0c             	mulb   0xc(%ebp)
  10171c:	89 c3                	mov    %eax,%ebx
  10171e:	81 c3 6b 17 10 00    	add    $0x10176b,%ebx
  101724:	8b 83 1b 00 00 00    	mov    0x1b(%ebx),%eax
  10172a:	89 46 04             	mov    %eax,0x4(%esi)
  10172d:	5b                   	pop    %ebx
  10172e:	5e                   	pop    %esi
  10172f:	5d                   	pop    %ebp
  101730:	c3                   	ret    

00101731 <_setvect>:
  101731:	55                   	push   %ebp
  101732:	89 e5                	mov    %esp,%ebp
  101734:	56                   	push   %esi
  101735:	53                   	push   %ebx
  101736:	8b 75 08             	mov    0x8(%ebp),%esi
  101739:	8b 06                	mov    (%esi),%eax
  10173b:	31 db                	xor    %ebx,%ebx
  10173d:	8a 5d 0c             	mov    0xc(%ebp),%bl
  101740:	c1 e3 03             	shl    $0x3,%ebx
  101743:	88 83 2f 70 10 00    	mov    %al,0x10702f(%ebx)
  101749:	b8 91 17 10 00       	mov    $0x101791,%eax
  10174e:	2d 6b 17 10 00       	sub    $0x10176b,%eax
  101753:	f6 65 0c             	mulb   0xc(%ebp)
  101756:	89 c3                	mov    %eax,%ebx
  101758:	81 c3 6b 17 10 00    	add    $0x10176b,%ebx
  10175e:	8b 46 04             	mov    0x4(%esi),%eax
  101761:	89 83 1b 00 00 00    	mov    %eax,0x1b(%ebx)
  101767:	5b                   	pop    %ebx
  101768:	5e                   	pop    %esi
  101769:	5d                   	pop    %ebp
  10176a:	c3                   	ret    

0010176b <isr0>:
  10176b:	6a 00                	push   $0x0
  10176d:	6a 00                	push   $0x0
  10176f:	0f a8                	push   %gs
  101771:	0f a0                	push   %fs
  101773:	06                   	push   %es
  101774:	1e                   	push   %ds
  101775:	60                   	pusha  
  101776:	66 b8 10 00          	mov    $0x10,%ax
  10177a:	8e d8                	mov    %eax,%ds
  10177c:	8e c0                	mov    %eax,%es
  10177e:	8e e0                	mov    %eax,%fs
  101780:	8e e8                	mov    %eax,%gs
  101782:	89 e0                	mov    %esp,%eax
  101784:	50                   	push   %eax

00101785 <isr0.1>:
  101785:	b8 04 3e 10 00       	mov    $0x103e04,%eax
  10178a:	ff d0                	call   *%eax
  10178c:	e9 57 ff ff ff       	jmp    1016e8 <all_ints>

00101791 <isr1>:
  101791:	6a 00                	push   $0x0
  101793:	6a 01                	push   $0x1
  101795:	0f a8                	push   %gs
  101797:	0f a0                	push   %fs
  101799:	06                   	push   %es
  10179a:	1e                   	push   %ds
  10179b:	60                   	pusha  
  10179c:	66 b8 10 00          	mov    $0x10,%ax
  1017a0:	8e d8                	mov    %eax,%ds
  1017a2:	8e c0                	mov    %eax,%es
  1017a4:	8e e0                	mov    %eax,%fs
  1017a6:	8e e8                	mov    %eax,%gs
  1017a8:	89 e0                	mov    %esp,%eax
  1017aa:	50                   	push   %eax

001017ab <isr1.1>:
  1017ab:	b8 04 3e 10 00       	mov    $0x103e04,%eax
  1017b0:	ff d0                	call   *%eax
  1017b2:	e9 31 ff ff ff       	jmp    1016e8 <all_ints>

001017b7 <isr2>:
  1017b7:	6a 00                	push   $0x0
  1017b9:	6a 02                	push   $0x2
  1017bb:	0f a8                	push   %gs
  1017bd:	0f a0                	push   %fs
  1017bf:	06                   	push   %es
  1017c0:	1e                   	push   %ds
  1017c1:	60                   	pusha  
  1017c2:	66 b8 10 00          	mov    $0x10,%ax
  1017c6:	8e d8                	mov    %eax,%ds
  1017c8:	8e c0                	mov    %eax,%es
  1017ca:	8e e0                	mov    %eax,%fs
  1017cc:	8e e8                	mov    %eax,%gs
  1017ce:	89 e0                	mov    %esp,%eax
  1017d0:	50                   	push   %eax

001017d1 <isr2.1>:
  1017d1:	b8 04 3e 10 00       	mov    $0x103e04,%eax
  1017d6:	ff d0                	call   *%eax
  1017d8:	e9 0b ff ff ff       	jmp    1016e8 <all_ints>

001017dd <isr3>:
  1017dd:	6a 00                	push   $0x0
  1017df:	6a 03                	push   $0x3
  1017e1:	0f a8                	push   %gs
  1017e3:	0f a0                	push   %fs
  1017e5:	06                   	push   %es
  1017e6:	1e                   	push   %ds
  1017e7:	60                   	pusha  
  1017e8:	66 b8 10 00          	mov    $0x10,%ax
  1017ec:	8e d8                	mov    %eax,%ds
  1017ee:	8e c0                	mov    %eax,%es
  1017f0:	8e e0                	mov    %eax,%fs
  1017f2:	8e e8                	mov    %eax,%gs
  1017f4:	89 e0                	mov    %esp,%eax
  1017f6:	50                   	push   %eax

001017f7 <isr3.1>:
  1017f7:	b8 04 3e 10 00       	mov    $0x103e04,%eax
  1017fc:	ff d0                	call   *%eax
  1017fe:	e9 e5 fe ff ff       	jmp    1016e8 <all_ints>

00101803 <isr4>:
  101803:	6a 00                	push   $0x0
  101805:	6a 04                	push   $0x4
  101807:	0f a8                	push   %gs
  101809:	0f a0                	push   %fs
  10180b:	06                   	push   %es
  10180c:	1e                   	push   %ds
  10180d:	60                   	pusha  
  10180e:	66 b8 10 00          	mov    $0x10,%ax
  101812:	8e d8                	mov    %eax,%ds
  101814:	8e c0                	mov    %eax,%es
  101816:	8e e0                	mov    %eax,%fs
  101818:	8e e8                	mov    %eax,%gs
  10181a:	89 e0                	mov    %esp,%eax
  10181c:	50                   	push   %eax

0010181d <isr4.1>:
  10181d:	b8 04 3e 10 00       	mov    $0x103e04,%eax
  101822:	ff d0                	call   *%eax
  101824:	e9 bf fe ff ff       	jmp    1016e8 <all_ints>

00101829 <isr5>:
  101829:	6a 00                	push   $0x0
  10182b:	6a 05                	push   $0x5
  10182d:	0f a8                	push   %gs
  10182f:	0f a0                	push   %fs
  101831:	06                   	push   %es
  101832:	1e                   	push   %ds
  101833:	60                   	pusha  
  101834:	66 b8 10 00          	mov    $0x10,%ax
  101838:	8e d8                	mov    %eax,%ds
  10183a:	8e c0                	mov    %eax,%es
  10183c:	8e e0                	mov    %eax,%fs
  10183e:	8e e8                	mov    %eax,%gs
  101840:	89 e0                	mov    %esp,%eax
  101842:	50                   	push   %eax

00101843 <isr5.1>:
  101843:	b8 04 3e 10 00       	mov    $0x103e04,%eax
  101848:	ff d0                	call   *%eax
  10184a:	e9 99 fe ff ff       	jmp    1016e8 <all_ints>

0010184f <isr6>:
  10184f:	6a 00                	push   $0x0
  101851:	6a 06                	push   $0x6
  101853:	0f a8                	push   %gs
  101855:	0f a0                	push   %fs
  101857:	06                   	push   %es
  101858:	1e                   	push   %ds
  101859:	60                   	pusha  
  10185a:	66 b8 10 00          	mov    $0x10,%ax
  10185e:	8e d8                	mov    %eax,%ds
  101860:	8e c0                	mov    %eax,%es
  101862:	8e e0                	mov    %eax,%fs
  101864:	8e e8                	mov    %eax,%gs
  101866:	89 e0                	mov    %esp,%eax
  101868:	50                   	push   %eax

00101869 <isr6.1>:
  101869:	b8 04 3e 10 00       	mov    $0x103e04,%eax
  10186e:	ff d0                	call   *%eax
  101870:	e9 73 fe ff ff       	jmp    1016e8 <all_ints>

00101875 <isr7>:
  101875:	6a 00                	push   $0x0
  101877:	6a 07                	push   $0x7
  101879:	0f a8                	push   %gs
  10187b:	0f a0                	push   %fs
  10187d:	06                   	push   %es
  10187e:	1e                   	push   %ds
  10187f:	60                   	pusha  
  101880:	66 b8 10 00          	mov    $0x10,%ax
  101884:	8e d8                	mov    %eax,%ds
  101886:	8e c0                	mov    %eax,%es
  101888:	8e e0                	mov    %eax,%fs
  10188a:	8e e8                	mov    %eax,%gs
  10188c:	89 e0                	mov    %esp,%eax
  10188e:	50                   	push   %eax

0010188f <isr7.1>:
  10188f:	b8 04 3e 10 00       	mov    $0x103e04,%eax
  101894:	ff d0                	call   *%eax
  101896:	e9 4d fe ff ff       	jmp    1016e8 <all_ints>

0010189b <isr8>:
  10189b:	90                   	nop    
  10189c:	90                   	nop    
  10189d:	6a 08                	push   $0x8
  10189f:	0f a8                	push   %gs
  1018a1:	0f a0                	push   %fs
  1018a3:	06                   	push   %es
  1018a4:	1e                   	push   %ds
  1018a5:	60                   	pusha  
  1018a6:	66 b8 10 00          	mov    $0x10,%ax
  1018aa:	8e d8                	mov    %eax,%ds
  1018ac:	8e c0                	mov    %eax,%es
  1018ae:	8e e0                	mov    %eax,%fs
  1018b0:	8e e8                	mov    %eax,%gs
  1018b2:	89 e0                	mov    %esp,%eax
  1018b4:	50                   	push   %eax

001018b5 <isr8.1>:
  1018b5:	b8 04 3e 10 00       	mov    $0x103e04,%eax
  1018ba:	ff d0                	call   *%eax
  1018bc:	e9 27 fe ff ff       	jmp    1016e8 <all_ints>

001018c1 <isr9>:
  1018c1:	6a 00                	push   $0x0
  1018c3:	6a 09                	push   $0x9
  1018c5:	0f a8                	push   %gs
  1018c7:	0f a0                	push   %fs
  1018c9:	06                   	push   %es
  1018ca:	1e                   	push   %ds
  1018cb:	60                   	pusha  
  1018cc:	66 b8 10 00          	mov    $0x10,%ax
  1018d0:	8e d8                	mov    %eax,%ds
  1018d2:	8e c0                	mov    %eax,%es
  1018d4:	8e e0                	mov    %eax,%fs
  1018d6:	8e e8                	mov    %eax,%gs
  1018d8:	89 e0                	mov    %esp,%eax
  1018da:	50                   	push   %eax

001018db <isr9.1>:
  1018db:	b8 04 3e 10 00       	mov    $0x103e04,%eax
  1018e0:	ff d0                	call   *%eax
  1018e2:	e9 01 fe ff ff       	jmp    1016e8 <all_ints>

001018e7 <isr0Ah>:
  1018e7:	90                   	nop    
  1018e8:	90                   	nop    
  1018e9:	6a 0a                	push   $0xa
  1018eb:	0f a8                	push   %gs
  1018ed:	0f a0                	push   %fs
  1018ef:	06                   	push   %es
  1018f0:	1e                   	push   %ds
  1018f1:	60                   	pusha  
  1018f2:	66 b8 10 00          	mov    $0x10,%ax
  1018f6:	8e d8                	mov    %eax,%ds
  1018f8:	8e c0                	mov    %eax,%es
  1018fa:	8e e0                	mov    %eax,%fs
  1018fc:	8e e8                	mov    %eax,%gs
  1018fe:	89 e0                	mov    %esp,%eax
  101900:	50                   	push   %eax

00101901 <isr0Ah.1>:
  101901:	b8 04 3e 10 00       	mov    $0x103e04,%eax
  101906:	ff d0                	call   *%eax
  101908:	e9 db fd ff ff       	jmp    1016e8 <all_ints>

0010190d <isr0Bh>:
  10190d:	90                   	nop    
  10190e:	90                   	nop    
  10190f:	6a 0b                	push   $0xb
  101911:	0f a8                	push   %gs
  101913:	0f a0                	push   %fs
  101915:	06                   	push   %es
  101916:	1e                   	push   %ds
  101917:	60                   	pusha  
  101918:	66 b8 10 00          	mov    $0x10,%ax
  10191c:	8e d8                	mov    %eax,%ds
  10191e:	8e c0                	mov    %eax,%es
  101920:	8e e0                	mov    %eax,%fs
  101922:	8e e8                	mov    %eax,%gs
  101924:	89 e0                	mov    %esp,%eax
  101926:	50                   	push   %eax

00101927 <isr0Bh.1>:
  101927:	b8 04 3e 10 00       	mov    $0x103e04,%eax
  10192c:	ff d0                	call   *%eax
  10192e:	e9 b5 fd ff ff       	jmp    1016e8 <all_ints>

00101933 <isr0Ch>:
  101933:	90                   	nop    
  101934:	90                   	nop    
  101935:	6a 0c                	push   $0xc
  101937:	0f a8                	push   %gs
  101939:	0f a0                	push   %fs
  10193b:	06                   	push   %es
  10193c:	1e                   	push   %ds
  10193d:	60                   	pusha  
  10193e:	66 b8 10 00          	mov    $0x10,%ax
  101942:	8e d8                	mov    %eax,%ds
  101944:	8e c0                	mov    %eax,%es
  101946:	8e e0                	mov    %eax,%fs
  101948:	8e e8                	mov    %eax,%gs
  10194a:	89 e0                	mov    %esp,%eax
  10194c:	50                   	push   %eax

0010194d <isr0Ch.1>:
  10194d:	b8 04 3e 10 00       	mov    $0x103e04,%eax
  101952:	ff d0                	call   *%eax
  101954:	e9 8f fd ff ff       	jmp    1016e8 <all_ints>

00101959 <isr0Dh>:
  101959:	90                   	nop    
  10195a:	90                   	nop    
  10195b:	6a 0d                	push   $0xd
  10195d:	0f a8                	push   %gs
  10195f:	0f a0                	push   %fs
  101961:	06                   	push   %es
  101962:	1e                   	push   %ds
  101963:	60                   	pusha  
  101964:	66 b8 10 00          	mov    $0x10,%ax
  101968:	8e d8                	mov    %eax,%ds
  10196a:	8e c0                	mov    %eax,%es
  10196c:	8e e0                	mov    %eax,%fs
  10196e:	8e e8                	mov    %eax,%gs
  101970:	89 e0                	mov    %esp,%eax
  101972:	50                   	push   %eax

00101973 <isr0Dh.1>:
  101973:	b8 04 3e 10 00       	mov    $0x103e04,%eax
  101978:	ff d0                	call   *%eax
  10197a:	e9 69 fd ff ff       	jmp    1016e8 <all_ints>

0010197f <isr0Eh>:
  10197f:	90                   	nop    
  101980:	90                   	nop    
  101981:	6a 0e                	push   $0xe
  101983:	0f a8                	push   %gs
  101985:	0f a0                	push   %fs
  101987:	06                   	push   %es
  101988:	1e                   	push   %ds
  101989:	60                   	pusha  
  10198a:	66 b8 10 00          	mov    $0x10,%ax
  10198e:	8e d8                	mov    %eax,%ds
  101990:	8e c0                	mov    %eax,%es
  101992:	8e e0                	mov    %eax,%fs
  101994:	8e e8                	mov    %eax,%gs
  101996:	89 e0                	mov    %esp,%eax
  101998:	50                   	push   %eax

00101999 <isr0Eh.1>:
  101999:	b8 04 3e 10 00       	mov    $0x103e04,%eax
  10199e:	ff d0                	call   *%eax
  1019a0:	e9 43 fd ff ff       	jmp    1016e8 <all_ints>

001019a5 <isr0Fh>:
  1019a5:	6a 00                	push   $0x0
  1019a7:	6a 0f                	push   $0xf
  1019a9:	0f a8                	push   %gs
  1019ab:	0f a0                	push   %fs
  1019ad:	06                   	push   %es
  1019ae:	1e                   	push   %ds
  1019af:	60                   	pusha  
  1019b0:	66 b8 10 00          	mov    $0x10,%ax
  1019b4:	8e d8                	mov    %eax,%ds
  1019b6:	8e c0                	mov    %eax,%es
  1019b8:	8e e0                	mov    %eax,%fs
  1019ba:	8e e8                	mov    %eax,%gs
  1019bc:	89 e0                	mov    %esp,%eax
  1019be:	50                   	push   %eax

001019bf <isr0Fh.1>:
  1019bf:	b8 04 3e 10 00       	mov    $0x103e04,%eax
  1019c4:	ff d0                	call   *%eax
  1019c6:	e9 1d fd ff ff       	jmp    1016e8 <all_ints>

001019cb <isr10h>:
  1019cb:	6a 00                	push   $0x0
  1019cd:	6a 10                	push   $0x10
  1019cf:	0f a8                	push   %gs
  1019d1:	0f a0                	push   %fs
  1019d3:	06                   	push   %es
  1019d4:	1e                   	push   %ds
  1019d5:	60                   	pusha  
  1019d6:	66 b8 10 00          	mov    $0x10,%ax
  1019da:	8e d8                	mov    %eax,%ds
  1019dc:	8e c0                	mov    %eax,%es
  1019de:	8e e0                	mov    %eax,%fs
  1019e0:	8e e8                	mov    %eax,%gs
  1019e2:	89 e0                	mov    %esp,%eax
  1019e4:	50                   	push   %eax

001019e5 <isr10h.1>:
  1019e5:	b8 04 3e 10 00       	mov    $0x103e04,%eax
  1019ea:	ff d0                	call   *%eax
  1019ec:	e9 f7 fc ff ff       	jmp    1016e8 <all_ints>

001019f1 <isr11h>:
  1019f1:	6a 00                	push   $0x0
  1019f3:	6a 11                	push   $0x11
  1019f5:	0f a8                	push   %gs
  1019f7:	0f a0                	push   %fs
  1019f9:	06                   	push   %es
  1019fa:	1e                   	push   %ds
  1019fb:	60                   	pusha  
  1019fc:	66 b8 10 00          	mov    $0x10,%ax
  101a00:	8e d8                	mov    %eax,%ds
  101a02:	8e c0                	mov    %eax,%es
  101a04:	8e e0                	mov    %eax,%fs
  101a06:	8e e8                	mov    %eax,%gs
  101a08:	89 e0                	mov    %esp,%eax
  101a0a:	50                   	push   %eax

00101a0b <isr11h.1>:
  101a0b:	b8 04 3e 10 00       	mov    $0x103e04,%eax
  101a10:	ff d0                	call   *%eax
  101a12:	e9 d1 fc ff ff       	jmp    1016e8 <all_ints>

00101a17 <isr12h>:
  101a17:	6a 00                	push   $0x0
  101a19:	6a 12                	push   $0x12
  101a1b:	0f a8                	push   %gs
  101a1d:	0f a0                	push   %fs
  101a1f:	06                   	push   %es
  101a20:	1e                   	push   %ds
  101a21:	60                   	pusha  
  101a22:	66 b8 10 00          	mov    $0x10,%ax
  101a26:	8e d8                	mov    %eax,%ds
  101a28:	8e c0                	mov    %eax,%es
  101a2a:	8e e0                	mov    %eax,%fs
  101a2c:	8e e8                	mov    %eax,%gs
  101a2e:	89 e0                	mov    %esp,%eax
  101a30:	50                   	push   %eax

00101a31 <isr12h.1>:
  101a31:	b8 04 3e 10 00       	mov    $0x103e04,%eax
  101a36:	ff d0                	call   *%eax
  101a38:	e9 ab fc ff ff       	jmp    1016e8 <all_ints>

00101a3d <isr13h>:
  101a3d:	6a 00                	push   $0x0
  101a3f:	6a 13                	push   $0x13
  101a41:	0f a8                	push   %gs
  101a43:	0f a0                	push   %fs
  101a45:	06                   	push   %es
  101a46:	1e                   	push   %ds
  101a47:	60                   	pusha  
  101a48:	66 b8 10 00          	mov    $0x10,%ax
  101a4c:	8e d8                	mov    %eax,%ds
  101a4e:	8e c0                	mov    %eax,%es
  101a50:	8e e0                	mov    %eax,%fs
  101a52:	8e e8                	mov    %eax,%gs
  101a54:	89 e0                	mov    %esp,%eax
  101a56:	50                   	push   %eax

00101a57 <isr13h.1>:
  101a57:	b8 04 3e 10 00       	mov    $0x103e04,%eax
  101a5c:	ff d0                	call   *%eax
  101a5e:	e9 85 fc ff ff       	jmp    1016e8 <all_ints>

00101a63 <isr14h>:
  101a63:	6a 00                	push   $0x0
  101a65:	6a 14                	push   $0x14
  101a67:	0f a8                	push   %gs
  101a69:	0f a0                	push   %fs
  101a6b:	06                   	push   %es
  101a6c:	1e                   	push   %ds
  101a6d:	60                   	pusha  
  101a6e:	66 b8 10 00          	mov    $0x10,%ax
  101a72:	8e d8                	mov    %eax,%ds
  101a74:	8e c0                	mov    %eax,%es
  101a76:	8e e0                	mov    %eax,%fs
  101a78:	8e e8                	mov    %eax,%gs
  101a7a:	89 e0                	mov    %esp,%eax
  101a7c:	50                   	push   %eax

00101a7d <isr14h.1>:
  101a7d:	b8 04 3e 10 00       	mov    $0x103e04,%eax
  101a82:	ff d0                	call   *%eax
  101a84:	e9 5f fc ff ff       	jmp    1016e8 <all_ints>

00101a89 <isr15h>:
  101a89:	6a 00                	push   $0x0
  101a8b:	6a 15                	push   $0x15
  101a8d:	0f a8                	push   %gs
  101a8f:	0f a0                	push   %fs
  101a91:	06                   	push   %es
  101a92:	1e                   	push   %ds
  101a93:	60                   	pusha  
  101a94:	66 b8 10 00          	mov    $0x10,%ax
  101a98:	8e d8                	mov    %eax,%ds
  101a9a:	8e c0                	mov    %eax,%es
  101a9c:	8e e0                	mov    %eax,%fs
  101a9e:	8e e8                	mov    %eax,%gs
  101aa0:	89 e0                	mov    %esp,%eax
  101aa2:	50                   	push   %eax

00101aa3 <isr15h.1>:
  101aa3:	b8 04 3e 10 00       	mov    $0x103e04,%eax
  101aa8:	ff d0                	call   *%eax
  101aaa:	e9 39 fc ff ff       	jmp    1016e8 <all_ints>

00101aaf <isr16h>:
  101aaf:	6a 00                	push   $0x0
  101ab1:	6a 16                	push   $0x16
  101ab3:	0f a8                	push   %gs
  101ab5:	0f a0                	push   %fs
  101ab7:	06                   	push   %es
  101ab8:	1e                   	push   %ds
  101ab9:	60                   	pusha  
  101aba:	66 b8 10 00          	mov    $0x10,%ax
  101abe:	8e d8                	mov    %eax,%ds
  101ac0:	8e c0                	mov    %eax,%es
  101ac2:	8e e0                	mov    %eax,%fs
  101ac4:	8e e8                	mov    %eax,%gs
  101ac6:	89 e0                	mov    %esp,%eax
  101ac8:	50                   	push   %eax

00101ac9 <isr16h.1>:
  101ac9:	b8 04 3e 10 00       	mov    $0x103e04,%eax
  101ace:	ff d0                	call   *%eax
  101ad0:	e9 13 fc ff ff       	jmp    1016e8 <all_ints>

00101ad5 <isr17h>:
  101ad5:	6a 00                	push   $0x0
  101ad7:	6a 17                	push   $0x17
  101ad9:	0f a8                	push   %gs
  101adb:	0f a0                	push   %fs
  101add:	06                   	push   %es
  101ade:	1e                   	push   %ds
  101adf:	60                   	pusha  
  101ae0:	66 b8 10 00          	mov    $0x10,%ax
  101ae4:	8e d8                	mov    %eax,%ds
  101ae6:	8e c0                	mov    %eax,%es
  101ae8:	8e e0                	mov    %eax,%fs
  101aea:	8e e8                	mov    %eax,%gs
  101aec:	89 e0                	mov    %esp,%eax
  101aee:	50                   	push   %eax

00101aef <isr17h.1>:
  101aef:	b8 04 3e 10 00       	mov    $0x103e04,%eax
  101af4:	ff d0                	call   *%eax
  101af6:	e9 ed fb ff ff       	jmp    1016e8 <all_ints>

00101afb <isr18h>:
  101afb:	6a 00                	push   $0x0
  101afd:	6a 18                	push   $0x18
  101aff:	0f a8                	push   %gs
  101b01:	0f a0                	push   %fs
  101b03:	06                   	push   %es
  101b04:	1e                   	push   %ds
  101b05:	60                   	pusha  
  101b06:	66 b8 10 00          	mov    $0x10,%ax
  101b0a:	8e d8                	mov    %eax,%ds
  101b0c:	8e c0                	mov    %eax,%es
  101b0e:	8e e0                	mov    %eax,%fs
  101b10:	8e e8                	mov    %eax,%gs
  101b12:	89 e0                	mov    %esp,%eax
  101b14:	50                   	push   %eax

00101b15 <isr18h.1>:
  101b15:	b8 04 3e 10 00       	mov    $0x103e04,%eax
  101b1a:	ff d0                	call   *%eax
  101b1c:	e9 c7 fb ff ff       	jmp    1016e8 <all_ints>

00101b21 <isr19h>:
  101b21:	6a 00                	push   $0x0
  101b23:	6a 19                	push   $0x19
  101b25:	0f a8                	push   %gs
  101b27:	0f a0                	push   %fs
  101b29:	06                   	push   %es
  101b2a:	1e                   	push   %ds
  101b2b:	60                   	pusha  
  101b2c:	66 b8 10 00          	mov    $0x10,%ax
  101b30:	8e d8                	mov    %eax,%ds
  101b32:	8e c0                	mov    %eax,%es
  101b34:	8e e0                	mov    %eax,%fs
  101b36:	8e e8                	mov    %eax,%gs
  101b38:	89 e0                	mov    %esp,%eax
  101b3a:	50                   	push   %eax

00101b3b <isr19h.1>:
  101b3b:	b8 04 3e 10 00       	mov    $0x103e04,%eax
  101b40:	ff d0                	call   *%eax
  101b42:	e9 a1 fb ff ff       	jmp    1016e8 <all_ints>

00101b47 <isr1Ah>:
  101b47:	6a 00                	push   $0x0
  101b49:	6a 1a                	push   $0x1a
  101b4b:	0f a8                	push   %gs
  101b4d:	0f a0                	push   %fs
  101b4f:	06                   	push   %es
  101b50:	1e                   	push   %ds
  101b51:	60                   	pusha  
  101b52:	66 b8 10 00          	mov    $0x10,%ax
  101b56:	8e d8                	mov    %eax,%ds
  101b58:	8e c0                	mov    %eax,%es
  101b5a:	8e e0                	mov    %eax,%fs
  101b5c:	8e e8                	mov    %eax,%gs
  101b5e:	89 e0                	mov    %esp,%eax
  101b60:	50                   	push   %eax

00101b61 <isr1Ah.1>:
  101b61:	b8 04 3e 10 00       	mov    $0x103e04,%eax
  101b66:	ff d0                	call   *%eax
  101b68:	e9 7b fb ff ff       	jmp    1016e8 <all_ints>

00101b6d <isr1Bh>:
  101b6d:	6a 00                	push   $0x0
  101b6f:	6a 1b                	push   $0x1b
  101b71:	0f a8                	push   %gs
  101b73:	0f a0                	push   %fs
  101b75:	06                   	push   %es
  101b76:	1e                   	push   %ds
  101b77:	60                   	pusha  
  101b78:	66 b8 10 00          	mov    $0x10,%ax
  101b7c:	8e d8                	mov    %eax,%ds
  101b7e:	8e c0                	mov    %eax,%es
  101b80:	8e e0                	mov    %eax,%fs
  101b82:	8e e8                	mov    %eax,%gs
  101b84:	89 e0                	mov    %esp,%eax
  101b86:	50                   	push   %eax

00101b87 <isr1Bh.1>:
  101b87:	b8 04 3e 10 00       	mov    $0x103e04,%eax
  101b8c:	ff d0                	call   *%eax
  101b8e:	e9 55 fb ff ff       	jmp    1016e8 <all_ints>

00101b93 <isr1Ch>:
  101b93:	6a 00                	push   $0x0
  101b95:	6a 1c                	push   $0x1c
  101b97:	0f a8                	push   %gs
  101b99:	0f a0                	push   %fs
  101b9b:	06                   	push   %es
  101b9c:	1e                   	push   %ds
  101b9d:	60                   	pusha  
  101b9e:	66 b8 10 00          	mov    $0x10,%ax
  101ba2:	8e d8                	mov    %eax,%ds
  101ba4:	8e c0                	mov    %eax,%es
  101ba6:	8e e0                	mov    %eax,%fs
  101ba8:	8e e8                	mov    %eax,%gs
  101baa:	89 e0                	mov    %esp,%eax
  101bac:	50                   	push   %eax

00101bad <isr1Ch.1>:
  101bad:	b8 04 3e 10 00       	mov    $0x103e04,%eax
  101bb2:	ff d0                	call   *%eax
  101bb4:	e9 2f fb ff ff       	jmp    1016e8 <all_ints>

00101bb9 <isr1Dh>:
  101bb9:	6a 00                	push   $0x0
  101bbb:	6a 1d                	push   $0x1d
  101bbd:	0f a8                	push   %gs
  101bbf:	0f a0                	push   %fs
  101bc1:	06                   	push   %es
  101bc2:	1e                   	push   %ds
  101bc3:	60                   	pusha  
  101bc4:	66 b8 10 00          	mov    $0x10,%ax
  101bc8:	8e d8                	mov    %eax,%ds
  101bca:	8e c0                	mov    %eax,%es
  101bcc:	8e e0                	mov    %eax,%fs
  101bce:	8e e8                	mov    %eax,%gs
  101bd0:	89 e0                	mov    %esp,%eax
  101bd2:	50                   	push   %eax

00101bd3 <isr1Dh.1>:
  101bd3:	b8 04 3e 10 00       	mov    $0x103e04,%eax
  101bd8:	ff d0                	call   *%eax
  101bda:	e9 09 fb ff ff       	jmp    1016e8 <all_ints>

00101bdf <isr1Eh>:
  101bdf:	6a 00                	push   $0x0
  101be1:	6a 1e                	push   $0x1e
  101be3:	0f a8                	push   %gs
  101be5:	0f a0                	push   %fs
  101be7:	06                   	push   %es
  101be8:	1e                   	push   %ds
  101be9:	60                   	pusha  
  101bea:	66 b8 10 00          	mov    $0x10,%ax
  101bee:	8e d8                	mov    %eax,%ds
  101bf0:	8e c0                	mov    %eax,%es
  101bf2:	8e e0                	mov    %eax,%fs
  101bf4:	8e e8                	mov    %eax,%gs
  101bf6:	89 e0                	mov    %esp,%eax
  101bf8:	50                   	push   %eax

00101bf9 <isr1Eh.1>:
  101bf9:	b8 04 3e 10 00       	mov    $0x103e04,%eax
  101bfe:	ff d0                	call   *%eax
  101c00:	e9 e3 fa ff ff       	jmp    1016e8 <all_ints>

00101c05 <isr1Fh>:
  101c05:	6a 00                	push   $0x0
  101c07:	6a 1f                	push   $0x1f
  101c09:	0f a8                	push   %gs
  101c0b:	0f a0                	push   %fs
  101c0d:	06                   	push   %es
  101c0e:	1e                   	push   %ds
  101c0f:	60                   	pusha  
  101c10:	66 b8 10 00          	mov    $0x10,%ax
  101c14:	8e d8                	mov    %eax,%ds
  101c16:	8e c0                	mov    %eax,%es
  101c18:	8e e0                	mov    %eax,%fs
  101c1a:	8e e8                	mov    %eax,%gs
  101c1c:	89 e0                	mov    %esp,%eax
  101c1e:	50                   	push   %eax

00101c1f <isr1Fh.1>:
  101c1f:	b8 04 3e 10 00       	mov    $0x103e04,%eax
  101c24:	ff d0                	call   *%eax
  101c26:	e9 bd fa ff ff       	jmp    1016e8 <all_ints>

00101c2b <isr20h>:
  101c2b:	6a 00                	push   $0x0
  101c2d:	6a 20                	push   $0x20
  101c2f:	0f a8                	push   %gs
  101c31:	0f a0                	push   %fs
  101c33:	06                   	push   %es
  101c34:	1e                   	push   %ds
  101c35:	60                   	pusha  
  101c36:	66 b8 10 00          	mov    $0x10,%ax
  101c3a:	8e d8                	mov    %eax,%ds
  101c3c:	8e c0                	mov    %eax,%es
  101c3e:	8e e0                	mov    %eax,%fs
  101c40:	8e e8                	mov    %eax,%gs
  101c42:	89 e0                	mov    %esp,%eax
  101c44:	50                   	push   %eax

00101c45 <isr20h.1>:
  101c45:	b8 04 3e 10 00       	mov    $0x103e04,%eax
  101c4a:	ff d0                	call   *%eax
  101c4c:	e9 97 fa ff ff       	jmp    1016e8 <all_ints>

00101c51 <isr21h>:
  101c51:	6a 00                	push   $0x0
  101c53:	6a 21                	push   $0x21
  101c55:	0f a8                	push   %gs
  101c57:	0f a0                	push   %fs
  101c59:	06                   	push   %es
  101c5a:	1e                   	push   %ds
  101c5b:	60                   	pusha  
  101c5c:	66 b8 10 00          	mov    $0x10,%ax
  101c60:	8e d8                	mov    %eax,%ds
  101c62:	8e c0                	mov    %eax,%es
  101c64:	8e e0                	mov    %eax,%fs
  101c66:	8e e8                	mov    %eax,%gs
  101c68:	89 e0                	mov    %esp,%eax
  101c6a:	50                   	push   %eax

00101c6b <isr21h.1>:
  101c6b:	b8 04 3e 10 00       	mov    $0x103e04,%eax
  101c70:	ff d0                	call   *%eax
  101c72:	e9 71 fa ff ff       	jmp    1016e8 <all_ints>

00101c77 <isr22h>:
  101c77:	6a 00                	push   $0x0
  101c79:	6a 22                	push   $0x22
  101c7b:	0f a8                	push   %gs
  101c7d:	0f a0                	push   %fs
  101c7f:	06                   	push   %es
  101c80:	1e                   	push   %ds
  101c81:	60                   	pusha  
  101c82:	66 b8 10 00          	mov    $0x10,%ax
  101c86:	8e d8                	mov    %eax,%ds
  101c88:	8e c0                	mov    %eax,%es
  101c8a:	8e e0                	mov    %eax,%fs
  101c8c:	8e e8                	mov    %eax,%gs
  101c8e:	89 e0                	mov    %esp,%eax
  101c90:	50                   	push   %eax

00101c91 <isr22h.1>:
  101c91:	b8 04 3e 10 00       	mov    $0x103e04,%eax
  101c96:	ff d0                	call   *%eax
  101c98:	e9 4b fa ff ff       	jmp    1016e8 <all_ints>

00101c9d <isr23h>:
  101c9d:	6a 00                	push   $0x0
  101c9f:	6a 23                	push   $0x23
  101ca1:	0f a8                	push   %gs
  101ca3:	0f a0                	push   %fs
  101ca5:	06                   	push   %es
  101ca6:	1e                   	push   %ds
  101ca7:	60                   	pusha  
  101ca8:	66 b8 10 00          	mov    $0x10,%ax
  101cac:	8e d8                	mov    %eax,%ds
  101cae:	8e c0                	mov    %eax,%es
  101cb0:	8e e0                	mov    %eax,%fs
  101cb2:	8e e8                	mov    %eax,%gs
  101cb4:	89 e0                	mov    %esp,%eax
  101cb6:	50                   	push   %eax

00101cb7 <isr23h.1>:
  101cb7:	b8 04 3e 10 00       	mov    $0x103e04,%eax
  101cbc:	ff d0                	call   *%eax
  101cbe:	e9 25 fa ff ff       	jmp    1016e8 <all_ints>

00101cc3 <isr24h>:
  101cc3:	6a 00                	push   $0x0
  101cc5:	6a 24                	push   $0x24
  101cc7:	0f a8                	push   %gs
  101cc9:	0f a0                	push   %fs
  101ccb:	06                   	push   %es
  101ccc:	1e                   	push   %ds
  101ccd:	60                   	pusha  
  101cce:	66 b8 10 00          	mov    $0x10,%ax
  101cd2:	8e d8                	mov    %eax,%ds
  101cd4:	8e c0                	mov    %eax,%es
  101cd6:	8e e0                	mov    %eax,%fs
  101cd8:	8e e8                	mov    %eax,%gs
  101cda:	89 e0                	mov    %esp,%eax
  101cdc:	50                   	push   %eax

00101cdd <isr24h.1>:
  101cdd:	b8 04 3e 10 00       	mov    $0x103e04,%eax
  101ce2:	ff d0                	call   *%eax
  101ce4:	e9 ff f9 ff ff       	jmp    1016e8 <all_ints>

00101ce9 <isr25h>:
  101ce9:	6a 00                	push   $0x0
  101ceb:	6a 25                	push   $0x25
  101ced:	0f a8                	push   %gs
  101cef:	0f a0                	push   %fs
  101cf1:	06                   	push   %es
  101cf2:	1e                   	push   %ds
  101cf3:	60                   	pusha  
  101cf4:	66 b8 10 00          	mov    $0x10,%ax
  101cf8:	8e d8                	mov    %eax,%ds
  101cfa:	8e c0                	mov    %eax,%es
  101cfc:	8e e0                	mov    %eax,%fs
  101cfe:	8e e8                	mov    %eax,%gs
  101d00:	89 e0                	mov    %esp,%eax
  101d02:	50                   	push   %eax

00101d03 <isr25h.1>:
  101d03:	b8 04 3e 10 00       	mov    $0x103e04,%eax
  101d08:	ff d0                	call   *%eax
  101d0a:	e9 d9 f9 ff ff       	jmp    1016e8 <all_ints>

00101d0f <isr26h>:
  101d0f:	6a 00                	push   $0x0
  101d11:	6a 26                	push   $0x26
  101d13:	0f a8                	push   %gs
  101d15:	0f a0                	push   %fs
  101d17:	06                   	push   %es
  101d18:	1e                   	push   %ds
  101d19:	60                   	pusha  
  101d1a:	66 b8 10 00          	mov    $0x10,%ax
  101d1e:	8e d8                	mov    %eax,%ds
  101d20:	8e c0                	mov    %eax,%es
  101d22:	8e e0                	mov    %eax,%fs
  101d24:	8e e8                	mov    %eax,%gs
  101d26:	89 e0                	mov    %esp,%eax
  101d28:	50                   	push   %eax

00101d29 <isr26h.1>:
  101d29:	b8 04 3e 10 00       	mov    $0x103e04,%eax
  101d2e:	ff d0                	call   *%eax
  101d30:	e9 b3 f9 ff ff       	jmp    1016e8 <all_ints>

00101d35 <isr27h>:
  101d35:	6a 00                	push   $0x0
  101d37:	6a 27                	push   $0x27
  101d39:	0f a8                	push   %gs
  101d3b:	0f a0                	push   %fs
  101d3d:	06                   	push   %es
  101d3e:	1e                   	push   %ds
  101d3f:	60                   	pusha  
  101d40:	66 b8 10 00          	mov    $0x10,%ax
  101d44:	8e d8                	mov    %eax,%ds
  101d46:	8e c0                	mov    %eax,%es
  101d48:	8e e0                	mov    %eax,%fs
  101d4a:	8e e8                	mov    %eax,%gs
  101d4c:	89 e0                	mov    %esp,%eax
  101d4e:	50                   	push   %eax

00101d4f <isr27h.1>:
  101d4f:	b8 04 3e 10 00       	mov    $0x103e04,%eax
  101d54:	ff d0                	call   *%eax
  101d56:	e9 8d f9 ff ff       	jmp    1016e8 <all_ints>

00101d5b <isr28h>:
  101d5b:	6a 00                	push   $0x0
  101d5d:	6a 28                	push   $0x28
  101d5f:	0f a8                	push   %gs
  101d61:	0f a0                	push   %fs
  101d63:	06                   	push   %es
  101d64:	1e                   	push   %ds
  101d65:	60                   	pusha  
  101d66:	66 b8 10 00          	mov    $0x10,%ax
  101d6a:	8e d8                	mov    %eax,%ds
  101d6c:	8e c0                	mov    %eax,%es
  101d6e:	8e e0                	mov    %eax,%fs
  101d70:	8e e8                	mov    %eax,%gs
  101d72:	89 e0                	mov    %esp,%eax
  101d74:	50                   	push   %eax

00101d75 <isr28h.1>:
  101d75:	b8 04 3e 10 00       	mov    $0x103e04,%eax
  101d7a:	ff d0                	call   *%eax
  101d7c:	e9 67 f9 ff ff       	jmp    1016e8 <all_ints>

00101d81 <isr29h>:
  101d81:	6a 00                	push   $0x0
  101d83:	6a 29                	push   $0x29
  101d85:	0f a8                	push   %gs
  101d87:	0f a0                	push   %fs
  101d89:	06                   	push   %es
  101d8a:	1e                   	push   %ds
  101d8b:	60                   	pusha  
  101d8c:	66 b8 10 00          	mov    $0x10,%ax
  101d90:	8e d8                	mov    %eax,%ds
  101d92:	8e c0                	mov    %eax,%es
  101d94:	8e e0                	mov    %eax,%fs
  101d96:	8e e8                	mov    %eax,%gs
  101d98:	89 e0                	mov    %esp,%eax
  101d9a:	50                   	push   %eax

00101d9b <isr29h.1>:
  101d9b:	b8 04 3e 10 00       	mov    $0x103e04,%eax
  101da0:	ff d0                	call   *%eax
  101da2:	e9 41 f9 ff ff       	jmp    1016e8 <all_ints>

00101da7 <isr2Ah>:
  101da7:	6a 00                	push   $0x0
  101da9:	6a 2a                	push   $0x2a
  101dab:	0f a8                	push   %gs
  101dad:	0f a0                	push   %fs
  101daf:	06                   	push   %es
  101db0:	1e                   	push   %ds
  101db1:	60                   	pusha  
  101db2:	66 b8 10 00          	mov    $0x10,%ax
  101db6:	8e d8                	mov    %eax,%ds
  101db8:	8e c0                	mov    %eax,%es
  101dba:	8e e0                	mov    %eax,%fs
  101dbc:	8e e8                	mov    %eax,%gs
  101dbe:	89 e0                	mov    %esp,%eax
  101dc0:	50                   	push   %eax

00101dc1 <isr2Ah.1>:
  101dc1:	b8 04 3e 10 00       	mov    $0x103e04,%eax
  101dc6:	ff d0                	call   *%eax
  101dc8:	e9 1b f9 ff ff       	jmp    1016e8 <all_ints>

00101dcd <isr2Bh>:
  101dcd:	6a 00                	push   $0x0
  101dcf:	6a 2b                	push   $0x2b
  101dd1:	0f a8                	push   %gs
  101dd3:	0f a0                	push   %fs
  101dd5:	06                   	push   %es
  101dd6:	1e                   	push   %ds
  101dd7:	60                   	pusha  
  101dd8:	66 b8 10 00          	mov    $0x10,%ax
  101ddc:	8e d8                	mov    %eax,%ds
  101dde:	8e c0                	mov    %eax,%es
  101de0:	8e e0                	mov    %eax,%fs
  101de2:	8e e8                	mov    %eax,%gs
  101de4:	89 e0                	mov    %esp,%eax
  101de6:	50                   	push   %eax

00101de7 <isr2Bh.1>:
  101de7:	b8 04 3e 10 00       	mov    $0x103e04,%eax
  101dec:	ff d0                	call   *%eax
  101dee:	e9 f5 f8 ff ff       	jmp    1016e8 <all_ints>

00101df3 <isr2Ch>:
  101df3:	6a 00                	push   $0x0
  101df5:	6a 2c                	push   $0x2c
  101df7:	0f a8                	push   %gs
  101df9:	0f a0                	push   %fs
  101dfb:	06                   	push   %es
  101dfc:	1e                   	push   %ds
  101dfd:	60                   	pusha  
  101dfe:	66 b8 10 00          	mov    $0x10,%ax
  101e02:	8e d8                	mov    %eax,%ds
  101e04:	8e c0                	mov    %eax,%es
  101e06:	8e e0                	mov    %eax,%fs
  101e08:	8e e8                	mov    %eax,%gs
  101e0a:	89 e0                	mov    %esp,%eax
  101e0c:	50                   	push   %eax

00101e0d <isr2Ch.1>:
  101e0d:	b8 04 3e 10 00       	mov    $0x103e04,%eax
  101e12:	ff d0                	call   *%eax
  101e14:	e9 cf f8 ff ff       	jmp    1016e8 <all_ints>

00101e19 <isr2Dh>:
  101e19:	6a 00                	push   $0x0
  101e1b:	6a 2d                	push   $0x2d
  101e1d:	0f a8                	push   %gs
  101e1f:	0f a0                	push   %fs
  101e21:	06                   	push   %es
  101e22:	1e                   	push   %ds
  101e23:	60                   	pusha  
  101e24:	66 b8 10 00          	mov    $0x10,%ax
  101e28:	8e d8                	mov    %eax,%ds
  101e2a:	8e c0                	mov    %eax,%es
  101e2c:	8e e0                	mov    %eax,%fs
  101e2e:	8e e8                	mov    %eax,%gs
  101e30:	89 e0                	mov    %esp,%eax
  101e32:	50                   	push   %eax

00101e33 <isr2Dh.1>:
  101e33:	b8 04 3e 10 00       	mov    $0x103e04,%eax
  101e38:	ff d0                	call   *%eax
  101e3a:	e9 a9 f8 ff ff       	jmp    1016e8 <all_ints>

00101e3f <isr2Eh>:
  101e3f:	6a 00                	push   $0x0
  101e41:	6a 2e                	push   $0x2e
  101e43:	0f a8                	push   %gs
  101e45:	0f a0                	push   %fs
  101e47:	06                   	push   %es
  101e48:	1e                   	push   %ds
  101e49:	60                   	pusha  
  101e4a:	66 b8 10 00          	mov    $0x10,%ax
  101e4e:	8e d8                	mov    %eax,%ds
  101e50:	8e c0                	mov    %eax,%es
  101e52:	8e e0                	mov    %eax,%fs
  101e54:	8e e8                	mov    %eax,%gs
  101e56:	89 e0                	mov    %esp,%eax
  101e58:	50                   	push   %eax

00101e59 <isr2Eh.1>:
  101e59:	b8 04 3e 10 00       	mov    $0x103e04,%eax
  101e5e:	ff d0                	call   *%eax
  101e60:	e9 83 f8 ff ff       	jmp    1016e8 <all_ints>

00101e65 <isr2Fh>:
  101e65:	6a 00                	push   $0x0
  101e67:	6a 2f                	push   $0x2f
  101e69:	0f a8                	push   %gs
  101e6b:	0f a0                	push   %fs
  101e6d:	06                   	push   %es
  101e6e:	1e                   	push   %ds
  101e6f:	60                   	pusha  
  101e70:	66 b8 10 00          	mov    $0x10,%ax
  101e74:	8e d8                	mov    %eax,%ds
  101e76:	8e c0                	mov    %eax,%es
  101e78:	8e e0                	mov    %eax,%fs
  101e7a:	8e e8                	mov    %eax,%gs
  101e7c:	89 e0                	mov    %esp,%eax
  101e7e:	50                   	push   %eax

00101e7f <isr2Fh.1>:
  101e7f:	b8 04 3e 10 00       	mov    $0x103e04,%eax
  101e84:	ff d0                	call   *%eax
  101e86:	e9 5d f8 ff ff       	jmp    1016e8 <all_ints>

00101e8b <isr30h>:
  101e8b:	6a 00                	push   $0x0
  101e8d:	6a 30                	push   $0x30
  101e8f:	0f a8                	push   %gs
  101e91:	0f a0                	push   %fs
  101e93:	06                   	push   %es
  101e94:	1e                   	push   %ds
  101e95:	60                   	pusha  
  101e96:	66 b8 10 00          	mov    $0x10,%ax
  101e9a:	8e d8                	mov    %eax,%ds
  101e9c:	8e c0                	mov    %eax,%es
  101e9e:	8e e0                	mov    %eax,%fs
  101ea0:	8e e8                	mov    %eax,%gs
  101ea2:	89 e0                	mov    %esp,%eax
  101ea4:	50                   	push   %eax

00101ea5 <isr30h.1>:
  101ea5:	b8 04 3e 10 00       	mov    $0x103e04,%eax
  101eaa:	ff d0                	call   *%eax
  101eac:	e9 37 f8 ff ff       	jmp    1016e8 <all_ints>

00101eb1 <isr49>:
  101eb1:	6a 00                	push   $0x0
  101eb3:	6a 31                	push   $0x31
  101eb5:	0f a8                	push   %gs
  101eb7:	0f a0                	push   %fs
  101eb9:	06                   	push   %es
  101eba:	1e                   	push   %ds
  101ebb:	60                   	pusha  
  101ebc:	66 b8 10 00          	mov    $0x10,%ax
  101ec0:	8e d8                	mov    %eax,%ds
  101ec2:	8e c0                	mov    %eax,%es
  101ec4:	8e e0                	mov    %eax,%fs
  101ec6:	8e e8                	mov    %eax,%gs
  101ec8:	89 e0                	mov    %esp,%eax
  101eca:	50                   	push   %eax

00101ecb <isr49.1>:
  101ecb:	b8 04 3e 10 00       	mov    $0x103e04,%eax
  101ed0:	ff d0                	call   *%eax
  101ed2:	e9 11 f8 ff ff       	jmp    1016e8 <all_ints>

00101ed7 <isr50>:
  101ed7:	6a 00                	push   $0x0
  101ed9:	6a 32                	push   $0x32
  101edb:	0f a8                	push   %gs
  101edd:	0f a0                	push   %fs
  101edf:	06                   	push   %es
  101ee0:	1e                   	push   %ds
  101ee1:	60                   	pusha  
  101ee2:	66 b8 10 00          	mov    $0x10,%ax
  101ee6:	8e d8                	mov    %eax,%ds
  101ee8:	8e c0                	mov    %eax,%es
  101eea:	8e e0                	mov    %eax,%fs
  101eec:	8e e8                	mov    %eax,%gs
  101eee:	89 e0                	mov    %esp,%eax
  101ef0:	50                   	push   %eax

00101ef1 <isr50.1>:
  101ef1:	b8 04 3e 10 00       	mov    $0x103e04,%eax
  101ef6:	ff d0                	call   *%eax
  101ef8:	e9 eb f7 ff ff       	jmp    1016e8 <all_ints>

00101efd <isr51>:
  101efd:	6a 00                	push   $0x0
  101eff:	6a 33                	push   $0x33
  101f01:	0f a8                	push   %gs
  101f03:	0f a0                	push   %fs
  101f05:	06                   	push   %es
  101f06:	1e                   	push   %ds
  101f07:	60                   	pusha  
  101f08:	66 b8 10 00          	mov    $0x10,%ax
  101f0c:	8e d8                	mov    %eax,%ds
  101f0e:	8e c0                	mov    %eax,%es
  101f10:	8e e0                	mov    %eax,%fs
  101f12:	8e e8                	mov    %eax,%gs
  101f14:	89 e0                	mov    %esp,%eax
  101f16:	50                   	push   %eax

00101f17 <isr51.1>:
  101f17:	b8 04 3e 10 00       	mov    $0x103e04,%eax
  101f1c:	ff d0                	call   *%eax
  101f1e:	e9 c5 f7 ff ff       	jmp    1016e8 <all_ints>

00101f23 <isr52>:
  101f23:	6a 00                	push   $0x0
  101f25:	6a 34                	push   $0x34
  101f27:	0f a8                	push   %gs
  101f29:	0f a0                	push   %fs
  101f2b:	06                   	push   %es
  101f2c:	1e                   	push   %ds
  101f2d:	60                   	pusha  
  101f2e:	66 b8 10 00          	mov    $0x10,%ax
  101f32:	8e d8                	mov    %eax,%ds
  101f34:	8e c0                	mov    %eax,%es
  101f36:	8e e0                	mov    %eax,%fs
  101f38:	8e e8                	mov    %eax,%gs
  101f3a:	89 e0                	mov    %esp,%eax
  101f3c:	50                   	push   %eax

00101f3d <isr52.1>:
  101f3d:	b8 04 3e 10 00       	mov    $0x103e04,%eax
  101f42:	ff d0                	call   *%eax
  101f44:	e9 9f f7 ff ff       	jmp    1016e8 <all_ints>

00101f49 <isr53>:
  101f49:	6a 00                	push   $0x0
  101f4b:	6a 35                	push   $0x35
  101f4d:	0f a8                	push   %gs
  101f4f:	0f a0                	push   %fs
  101f51:	06                   	push   %es
  101f52:	1e                   	push   %ds
  101f53:	60                   	pusha  
  101f54:	66 b8 10 00          	mov    $0x10,%ax
  101f58:	8e d8                	mov    %eax,%ds
  101f5a:	8e c0                	mov    %eax,%es
  101f5c:	8e e0                	mov    %eax,%fs
  101f5e:	8e e8                	mov    %eax,%gs
  101f60:	89 e0                	mov    %esp,%eax
  101f62:	50                   	push   %eax

00101f63 <isr53.1>:
  101f63:	b8 04 3e 10 00       	mov    $0x103e04,%eax
  101f68:	ff d0                	call   *%eax
  101f6a:	e9 79 f7 ff ff       	jmp    1016e8 <all_ints>

00101f6f <isr54>:
  101f6f:	6a 00                	push   $0x0
  101f71:	6a 36                	push   $0x36
  101f73:	0f a8                	push   %gs
  101f75:	0f a0                	push   %fs
  101f77:	06                   	push   %es
  101f78:	1e                   	push   %ds
  101f79:	60                   	pusha  
  101f7a:	66 b8 10 00          	mov    $0x10,%ax
  101f7e:	8e d8                	mov    %eax,%ds
  101f80:	8e c0                	mov    %eax,%es
  101f82:	8e e0                	mov    %eax,%fs
  101f84:	8e e8                	mov    %eax,%gs
  101f86:	89 e0                	mov    %esp,%eax
  101f88:	50                   	push   %eax

00101f89 <isr54.1>:
  101f89:	b8 04 3e 10 00       	mov    $0x103e04,%eax
  101f8e:	ff d0                	call   *%eax
  101f90:	e9 53 f7 ff ff       	jmp    1016e8 <all_ints>

00101f95 <isr55>:
  101f95:	6a 00                	push   $0x0
  101f97:	6a 37                	push   $0x37
  101f99:	0f a8                	push   %gs
  101f9b:	0f a0                	push   %fs
  101f9d:	06                   	push   %es
  101f9e:	1e                   	push   %ds
  101f9f:	60                   	pusha  
  101fa0:	66 b8 10 00          	mov    $0x10,%ax
  101fa4:	8e d8                	mov    %eax,%ds
  101fa6:	8e c0                	mov    %eax,%es
  101fa8:	8e e0                	mov    %eax,%fs
  101faa:	8e e8                	mov    %eax,%gs
  101fac:	89 e0                	mov    %esp,%eax
  101fae:	50                   	push   %eax

00101faf <isr55.1>:
  101faf:	b8 04 3e 10 00       	mov    $0x103e04,%eax
  101fb4:	ff d0                	call   *%eax
  101fb6:	e9 2d f7 ff ff       	jmp    1016e8 <all_ints>

00101fbb <isr56>:
  101fbb:	6a 00                	push   $0x0
  101fbd:	6a 38                	push   $0x38
  101fbf:	0f a8                	push   %gs
  101fc1:	0f a0                	push   %fs
  101fc3:	06                   	push   %es
  101fc4:	1e                   	push   %ds
  101fc5:	60                   	pusha  
  101fc6:	66 b8 10 00          	mov    $0x10,%ax
  101fca:	8e d8                	mov    %eax,%ds
  101fcc:	8e c0                	mov    %eax,%es
  101fce:	8e e0                	mov    %eax,%fs
  101fd0:	8e e8                	mov    %eax,%gs
  101fd2:	89 e0                	mov    %esp,%eax
  101fd4:	50                   	push   %eax

00101fd5 <isr56.1>:
  101fd5:	b8 04 3e 10 00       	mov    $0x103e04,%eax
  101fda:	ff d0                	call   *%eax
  101fdc:	e9 07 f7 ff ff       	jmp    1016e8 <all_ints>

00101fe1 <isr57>:
  101fe1:	6a 00                	push   $0x0
  101fe3:	6a 39                	push   $0x39
  101fe5:	0f a8                	push   %gs
  101fe7:	0f a0                	push   %fs
  101fe9:	06                   	push   %es
  101fea:	1e                   	push   %ds
  101feb:	60                   	pusha  
  101fec:	66 b8 10 00          	mov    $0x10,%ax
  101ff0:	8e d8                	mov    %eax,%ds
  101ff2:	8e c0                	mov    %eax,%es
  101ff4:	8e e0                	mov    %eax,%fs
  101ff6:	8e e8                	mov    %eax,%gs
  101ff8:	89 e0                	mov    %esp,%eax
  101ffa:	50                   	push   %eax

00101ffb <isr57.1>:
  101ffb:	b8 04 3e 10 00       	mov    $0x103e04,%eax
  102000:	ff d0                	call   *%eax
  102002:	e9 e1 f6 ff ff       	jmp    1016e8 <all_ints>

00102007 <isr58>:
  102007:	6a 00                	push   $0x0
  102009:	6a 3a                	push   $0x3a
  10200b:	0f a8                	push   %gs
  10200d:	0f a0                	push   %fs
  10200f:	06                   	push   %es
  102010:	1e                   	push   %ds
  102011:	60                   	pusha  
  102012:	66 b8 10 00          	mov    $0x10,%ax
  102016:	8e d8                	mov    %eax,%ds
  102018:	8e c0                	mov    %eax,%es
  10201a:	8e e0                	mov    %eax,%fs
  10201c:	8e e8                	mov    %eax,%gs
  10201e:	89 e0                	mov    %esp,%eax
  102020:	50                   	push   %eax

00102021 <isr58.1>:
  102021:	b8 04 3e 10 00       	mov    $0x103e04,%eax
  102026:	ff d0                	call   *%eax
  102028:	e9 bb f6 ff ff       	jmp    1016e8 <all_ints>

0010202d <isr59>:
  10202d:	6a 00                	push   $0x0
  10202f:	6a 3b                	push   $0x3b
  102031:	0f a8                	push   %gs
  102033:	0f a0                	push   %fs
  102035:	06                   	push   %es
  102036:	1e                   	push   %ds
  102037:	60                   	pusha  
  102038:	66 b8 10 00          	mov    $0x10,%ax
  10203c:	8e d8                	mov    %eax,%ds
  10203e:	8e c0                	mov    %eax,%es
  102040:	8e e0                	mov    %eax,%fs
  102042:	8e e8                	mov    %eax,%gs
  102044:	89 e0                	mov    %esp,%eax
  102046:	50                   	push   %eax

00102047 <isr59.1>:
  102047:	b8 04 3e 10 00       	mov    $0x103e04,%eax
  10204c:	ff d0                	call   *%eax
  10204e:	e9 95 f6 ff ff       	jmp    1016e8 <all_ints>

00102053 <isr60>:
  102053:	6a 00                	push   $0x0
  102055:	6a 3c                	push   $0x3c
  102057:	0f a8                	push   %gs
  102059:	0f a0                	push   %fs
  10205b:	06                   	push   %es
  10205c:	1e                   	push   %ds
  10205d:	60                   	pusha  
  10205e:	66 b8 10 00          	mov    $0x10,%ax
  102062:	8e d8                	mov    %eax,%ds
  102064:	8e c0                	mov    %eax,%es
  102066:	8e e0                	mov    %eax,%fs
  102068:	8e e8                	mov    %eax,%gs
  10206a:	89 e0                	mov    %esp,%eax
  10206c:	50                   	push   %eax

0010206d <isr60.1>:
  10206d:	b8 04 3e 10 00       	mov    $0x103e04,%eax
  102072:	ff d0                	call   *%eax
  102074:	e9 6f f6 ff ff       	jmp    1016e8 <all_ints>

00102079 <isr61>:
  102079:	6a 00                	push   $0x0
  10207b:	6a 3d                	push   $0x3d
  10207d:	0f a8                	push   %gs
  10207f:	0f a0                	push   %fs
  102081:	06                   	push   %es
  102082:	1e                   	push   %ds
  102083:	60                   	pusha  
  102084:	66 b8 10 00          	mov    $0x10,%ax
  102088:	8e d8                	mov    %eax,%ds
  10208a:	8e c0                	mov    %eax,%es
  10208c:	8e e0                	mov    %eax,%fs
  10208e:	8e e8                	mov    %eax,%gs
  102090:	89 e0                	mov    %esp,%eax
  102092:	50                   	push   %eax

00102093 <isr61.1>:
  102093:	b8 04 3e 10 00       	mov    $0x103e04,%eax
  102098:	ff d0                	call   *%eax
  10209a:	e9 49 f6 ff ff       	jmp    1016e8 <all_ints>

0010209f <isr62>:
  10209f:	6a 00                	push   $0x0
  1020a1:	6a 3e                	push   $0x3e
  1020a3:	0f a8                	push   %gs
  1020a5:	0f a0                	push   %fs
  1020a7:	06                   	push   %es
  1020a8:	1e                   	push   %ds
  1020a9:	60                   	pusha  
  1020aa:	66 b8 10 00          	mov    $0x10,%ax
  1020ae:	8e d8                	mov    %eax,%ds
  1020b0:	8e c0                	mov    %eax,%es
  1020b2:	8e e0                	mov    %eax,%fs
  1020b4:	8e e8                	mov    %eax,%gs
  1020b6:	89 e0                	mov    %esp,%eax
  1020b8:	50                   	push   %eax

001020b9 <isr62.1>:
  1020b9:	b8 04 3e 10 00       	mov    $0x103e04,%eax
  1020be:	ff d0                	call   *%eax
  1020c0:	e9 23 f6 ff ff       	jmp    1016e8 <all_ints>

001020c5 <isr63>:
  1020c5:	6a 00                	push   $0x0
  1020c7:	6a 3f                	push   $0x3f
  1020c9:	0f a8                	push   %gs
  1020cb:	0f a0                	push   %fs
  1020cd:	06                   	push   %es
  1020ce:	1e                   	push   %ds
  1020cf:	60                   	pusha  
  1020d0:	66 b8 10 00          	mov    $0x10,%ax
  1020d4:	8e d8                	mov    %eax,%ds
  1020d6:	8e c0                	mov    %eax,%es
  1020d8:	8e e0                	mov    %eax,%fs
  1020da:	8e e8                	mov    %eax,%gs
  1020dc:	89 e0                	mov    %esp,%eax
  1020de:	50                   	push   %eax

001020df <isr63.1>:
  1020df:	b8 04 3e 10 00       	mov    $0x103e04,%eax
  1020e4:	ff d0                	call   *%eax
  1020e6:	e9 fd f5 ff ff       	jmp    1016e8 <all_ints>

001020eb <isr64>:
  1020eb:	6a 00                	push   $0x0
  1020ed:	6a 40                	push   $0x40
  1020ef:	0f a8                	push   %gs
  1020f1:	0f a0                	push   %fs
  1020f3:	06                   	push   %es
  1020f4:	1e                   	push   %ds
  1020f5:	60                   	pusha  
  1020f6:	66 b8 10 00          	mov    $0x10,%ax
  1020fa:	8e d8                	mov    %eax,%ds
  1020fc:	8e c0                	mov    %eax,%es
  1020fe:	8e e0                	mov    %eax,%fs
  102100:	8e e8                	mov    %eax,%gs
  102102:	89 e0                	mov    %esp,%eax
  102104:	50                   	push   %eax

00102105 <isr64.1>:
  102105:	b8 04 3e 10 00       	mov    $0x103e04,%eax
  10210a:	ff d0                	call   *%eax
  10210c:	e9 d7 f5 ff ff       	jmp    1016e8 <all_ints>

00102111 <isr65>:
  102111:	6a 00                	push   $0x0
  102113:	6a 41                	push   $0x41
  102115:	0f a8                	push   %gs
  102117:	0f a0                	push   %fs
  102119:	06                   	push   %es
  10211a:	1e                   	push   %ds
  10211b:	60                   	pusha  
  10211c:	66 b8 10 00          	mov    $0x10,%ax
  102120:	8e d8                	mov    %eax,%ds
  102122:	8e c0                	mov    %eax,%es
  102124:	8e e0                	mov    %eax,%fs
  102126:	8e e8                	mov    %eax,%gs
  102128:	89 e0                	mov    %esp,%eax
  10212a:	50                   	push   %eax

0010212b <isr65.1>:
  10212b:	b8 04 3e 10 00       	mov    $0x103e04,%eax
  102130:	ff d0                	call   *%eax
  102132:	e9 b1 f5 ff ff       	jmp    1016e8 <all_ints>

00102137 <isr66>:
  102137:	6a 00                	push   $0x0
  102139:	6a 42                	push   $0x42
  10213b:	0f a8                	push   %gs
  10213d:	0f a0                	push   %fs
  10213f:	06                   	push   %es
  102140:	1e                   	push   %ds
  102141:	60                   	pusha  
  102142:	66 b8 10 00          	mov    $0x10,%ax
  102146:	8e d8                	mov    %eax,%ds
  102148:	8e c0                	mov    %eax,%es
  10214a:	8e e0                	mov    %eax,%fs
  10214c:	8e e8                	mov    %eax,%gs
  10214e:	89 e0                	mov    %esp,%eax
  102150:	50                   	push   %eax

00102151 <isr66.1>:
  102151:	b8 04 3e 10 00       	mov    $0x103e04,%eax
  102156:	ff d0                	call   *%eax
  102158:	e9 8b f5 ff ff       	jmp    1016e8 <all_ints>

0010215d <isr67>:
  10215d:	6a 00                	push   $0x0
  10215f:	6a 43                	push   $0x43
  102161:	0f a8                	push   %gs
  102163:	0f a0                	push   %fs
  102165:	06                   	push   %es
  102166:	1e                   	push   %ds
  102167:	60                   	pusha  
  102168:	66 b8 10 00          	mov    $0x10,%ax
  10216c:	8e d8                	mov    %eax,%ds
  10216e:	8e c0                	mov    %eax,%es
  102170:	8e e0                	mov    %eax,%fs
  102172:	8e e8                	mov    %eax,%gs
  102174:	89 e0                	mov    %esp,%eax
  102176:	50                   	push   %eax

00102177 <isr67.1>:
  102177:	b8 04 3e 10 00       	mov    $0x103e04,%eax
  10217c:	ff d0                	call   *%eax
  10217e:	e9 65 f5 ff ff       	jmp    1016e8 <all_ints>

00102183 <isr68>:
  102183:	6a 00                	push   $0x0
  102185:	6a 44                	push   $0x44
  102187:	0f a8                	push   %gs
  102189:	0f a0                	push   %fs
  10218b:	06                   	push   %es
  10218c:	1e                   	push   %ds
  10218d:	60                   	pusha  
  10218e:	66 b8 10 00          	mov    $0x10,%ax
  102192:	8e d8                	mov    %eax,%ds
  102194:	8e c0                	mov    %eax,%es
  102196:	8e e0                	mov    %eax,%fs
  102198:	8e e8                	mov    %eax,%gs
  10219a:	89 e0                	mov    %esp,%eax
  10219c:	50                   	push   %eax

0010219d <isr68.1>:
  10219d:	b8 04 3e 10 00       	mov    $0x103e04,%eax
  1021a2:	ff d0                	call   *%eax
  1021a4:	e9 3f f5 ff ff       	jmp    1016e8 <all_ints>

001021a9 <isr69>:
  1021a9:	6a 00                	push   $0x0
  1021ab:	6a 45                	push   $0x45
  1021ad:	0f a8                	push   %gs
  1021af:	0f a0                	push   %fs
  1021b1:	06                   	push   %es
  1021b2:	1e                   	push   %ds
  1021b3:	60                   	pusha  
  1021b4:	66 b8 10 00          	mov    $0x10,%ax
  1021b8:	8e d8                	mov    %eax,%ds
  1021ba:	8e c0                	mov    %eax,%es
  1021bc:	8e e0                	mov    %eax,%fs
  1021be:	8e e8                	mov    %eax,%gs
  1021c0:	89 e0                	mov    %esp,%eax
  1021c2:	50                   	push   %eax

001021c3 <isr69.1>:
  1021c3:	b8 04 3e 10 00       	mov    $0x103e04,%eax
  1021c8:	ff d0                	call   *%eax
  1021ca:	e9 19 f5 ff ff       	jmp    1016e8 <all_ints>

001021cf <isr70>:
  1021cf:	6a 00                	push   $0x0
  1021d1:	6a 46                	push   $0x46
  1021d3:	0f a8                	push   %gs
  1021d5:	0f a0                	push   %fs
  1021d7:	06                   	push   %es
  1021d8:	1e                   	push   %ds
  1021d9:	60                   	pusha  
  1021da:	66 b8 10 00          	mov    $0x10,%ax
  1021de:	8e d8                	mov    %eax,%ds
  1021e0:	8e c0                	mov    %eax,%es
  1021e2:	8e e0                	mov    %eax,%fs
  1021e4:	8e e8                	mov    %eax,%gs
  1021e6:	89 e0                	mov    %esp,%eax
  1021e8:	50                   	push   %eax

001021e9 <isr70.1>:
  1021e9:	b8 04 3e 10 00       	mov    $0x103e04,%eax
  1021ee:	ff d0                	call   *%eax
  1021f0:	e9 f3 f4 ff ff       	jmp    1016e8 <all_ints>

001021f5 <isr71>:
  1021f5:	6a 00                	push   $0x0
  1021f7:	6a 47                	push   $0x47
  1021f9:	0f a8                	push   %gs
  1021fb:	0f a0                	push   %fs
  1021fd:	06                   	push   %es
  1021fe:	1e                   	push   %ds
  1021ff:	60                   	pusha  
  102200:	66 b8 10 00          	mov    $0x10,%ax
  102204:	8e d8                	mov    %eax,%ds
  102206:	8e c0                	mov    %eax,%es
  102208:	8e e0                	mov    %eax,%fs
  10220a:	8e e8                	mov    %eax,%gs
  10220c:	89 e0                	mov    %esp,%eax
  10220e:	50                   	push   %eax

0010220f <isr71.1>:
  10220f:	b8 04 3e 10 00       	mov    $0x103e04,%eax
  102214:	ff d0                	call   *%eax
  102216:	e9 cd f4 ff ff       	jmp    1016e8 <all_ints>

0010221b <isr72>:
  10221b:	6a 00                	push   $0x0
  10221d:	6a 48                	push   $0x48
  10221f:	0f a8                	push   %gs
  102221:	0f a0                	push   %fs
  102223:	06                   	push   %es
  102224:	1e                   	push   %ds
  102225:	60                   	pusha  
  102226:	66 b8 10 00          	mov    $0x10,%ax
  10222a:	8e d8                	mov    %eax,%ds
  10222c:	8e c0                	mov    %eax,%es
  10222e:	8e e0                	mov    %eax,%fs
  102230:	8e e8                	mov    %eax,%gs
  102232:	89 e0                	mov    %esp,%eax
  102234:	50                   	push   %eax

00102235 <isr72.1>:
  102235:	b8 04 3e 10 00       	mov    $0x103e04,%eax
  10223a:	ff d0                	call   *%eax
  10223c:	e9 a7 f4 ff ff       	jmp    1016e8 <all_ints>

00102241 <isr73>:
  102241:	6a 00                	push   $0x0
  102243:	6a 49                	push   $0x49
  102245:	0f a8                	push   %gs
  102247:	0f a0                	push   %fs
  102249:	06                   	push   %es
  10224a:	1e                   	push   %ds
  10224b:	60                   	pusha  
  10224c:	66 b8 10 00          	mov    $0x10,%ax
  102250:	8e d8                	mov    %eax,%ds
  102252:	8e c0                	mov    %eax,%es
  102254:	8e e0                	mov    %eax,%fs
  102256:	8e e8                	mov    %eax,%gs
  102258:	89 e0                	mov    %esp,%eax
  10225a:	50                   	push   %eax

0010225b <isr73.1>:
  10225b:	b8 04 3e 10 00       	mov    $0x103e04,%eax
  102260:	ff d0                	call   *%eax
  102262:	e9 81 f4 ff ff       	jmp    1016e8 <all_ints>

00102267 <isr74>:
  102267:	6a 00                	push   $0x0
  102269:	6a 4a                	push   $0x4a
  10226b:	0f a8                	push   %gs
  10226d:	0f a0                	push   %fs
  10226f:	06                   	push   %es
  102270:	1e                   	push   %ds
  102271:	60                   	pusha  
  102272:	66 b8 10 00          	mov    $0x10,%ax
  102276:	8e d8                	mov    %eax,%ds
  102278:	8e c0                	mov    %eax,%es
  10227a:	8e e0                	mov    %eax,%fs
  10227c:	8e e8                	mov    %eax,%gs
  10227e:	89 e0                	mov    %esp,%eax
  102280:	50                   	push   %eax

00102281 <isr74.1>:
  102281:	b8 04 3e 10 00       	mov    $0x103e04,%eax
  102286:	ff d0                	call   *%eax
  102288:	e9 5b f4 ff ff       	jmp    1016e8 <all_ints>

0010228d <isr75>:
  10228d:	6a 00                	push   $0x0
  10228f:	6a 4b                	push   $0x4b
  102291:	0f a8                	push   %gs
  102293:	0f a0                	push   %fs
  102295:	06                   	push   %es
  102296:	1e                   	push   %ds
  102297:	60                   	pusha  
  102298:	66 b8 10 00          	mov    $0x10,%ax
  10229c:	8e d8                	mov    %eax,%ds
  10229e:	8e c0                	mov    %eax,%es
  1022a0:	8e e0                	mov    %eax,%fs
  1022a2:	8e e8                	mov    %eax,%gs
  1022a4:	89 e0                	mov    %esp,%eax
  1022a6:	50                   	push   %eax

001022a7 <isr75.1>:
  1022a7:	b8 04 3e 10 00       	mov    $0x103e04,%eax
  1022ac:	ff d0                	call   *%eax
  1022ae:	e9 35 f4 ff ff       	jmp    1016e8 <all_ints>

001022b3 <isr76>:
  1022b3:	6a 00                	push   $0x0
  1022b5:	6a 4c                	push   $0x4c
  1022b7:	0f a8                	push   %gs
  1022b9:	0f a0                	push   %fs
  1022bb:	06                   	push   %es
  1022bc:	1e                   	push   %ds
  1022bd:	60                   	pusha  
  1022be:	66 b8 10 00          	mov    $0x10,%ax
  1022c2:	8e d8                	mov    %eax,%ds
  1022c4:	8e c0                	mov    %eax,%es
  1022c6:	8e e0                	mov    %eax,%fs
  1022c8:	8e e8                	mov    %eax,%gs
  1022ca:	89 e0                	mov    %esp,%eax
  1022cc:	50                   	push   %eax

001022cd <isr76.1>:
  1022cd:	b8 04 3e 10 00       	mov    $0x103e04,%eax
  1022d2:	ff d0                	call   *%eax
  1022d4:	e9 0f f4 ff ff       	jmp    1016e8 <all_ints>

001022d9 <isr77>:
  1022d9:	6a 00                	push   $0x0
  1022db:	6a 4d                	push   $0x4d
  1022dd:	0f a8                	push   %gs
  1022df:	0f a0                	push   %fs
  1022e1:	06                   	push   %es
  1022e2:	1e                   	push   %ds
  1022e3:	60                   	pusha  
  1022e4:	66 b8 10 00          	mov    $0x10,%ax
  1022e8:	8e d8                	mov    %eax,%ds
  1022ea:	8e c0                	mov    %eax,%es
  1022ec:	8e e0                	mov    %eax,%fs
  1022ee:	8e e8                	mov    %eax,%gs
  1022f0:	89 e0                	mov    %esp,%eax
  1022f2:	50                   	push   %eax

001022f3 <isr77.1>:
  1022f3:	b8 04 3e 10 00       	mov    $0x103e04,%eax
  1022f8:	ff d0                	call   *%eax
  1022fa:	e9 e9 f3 ff ff       	jmp    1016e8 <all_ints>

001022ff <isr78>:
  1022ff:	6a 00                	push   $0x0
  102301:	6a 4e                	push   $0x4e
  102303:	0f a8                	push   %gs
  102305:	0f a0                	push   %fs
  102307:	06                   	push   %es
  102308:	1e                   	push   %ds
  102309:	60                   	pusha  
  10230a:	66 b8 10 00          	mov    $0x10,%ax
  10230e:	8e d8                	mov    %eax,%ds
  102310:	8e c0                	mov    %eax,%es
  102312:	8e e0                	mov    %eax,%fs
  102314:	8e e8                	mov    %eax,%gs
  102316:	89 e0                	mov    %esp,%eax
  102318:	50                   	push   %eax

00102319 <isr78.1>:
  102319:	b8 04 3e 10 00       	mov    $0x103e04,%eax
  10231e:	ff d0                	call   *%eax
  102320:	e9 c3 f3 ff ff       	jmp    1016e8 <all_ints>

00102325 <isr79>:
  102325:	6a 00                	push   $0x0
  102327:	6a 4f                	push   $0x4f
  102329:	0f a8                	push   %gs
  10232b:	0f a0                	push   %fs
  10232d:	06                   	push   %es
  10232e:	1e                   	push   %ds
  10232f:	60                   	pusha  
  102330:	66 b8 10 00          	mov    $0x10,%ax
  102334:	8e d8                	mov    %eax,%ds
  102336:	8e c0                	mov    %eax,%es
  102338:	8e e0                	mov    %eax,%fs
  10233a:	8e e8                	mov    %eax,%gs
  10233c:	89 e0                	mov    %esp,%eax
  10233e:	50                   	push   %eax

0010233f <isr79.1>:
  10233f:	b8 04 3e 10 00       	mov    $0x103e04,%eax
  102344:	ff d0                	call   *%eax
  102346:	e9 9d f3 ff ff       	jmp    1016e8 <all_ints>

0010234b <isr80>:
  10234b:	6a 00                	push   $0x0
  10234d:	6a 50                	push   $0x50
  10234f:	0f a8                	push   %gs
  102351:	0f a0                	push   %fs
  102353:	06                   	push   %es
  102354:	1e                   	push   %ds
  102355:	60                   	pusha  
  102356:	66 b8 10 00          	mov    $0x10,%ax
  10235a:	8e d8                	mov    %eax,%ds
  10235c:	8e c0                	mov    %eax,%es
  10235e:	8e e0                	mov    %eax,%fs
  102360:	8e e8                	mov    %eax,%gs
  102362:	89 e0                	mov    %esp,%eax
  102364:	50                   	push   %eax

00102365 <isr80.1>:
  102365:	b8 04 3e 10 00       	mov    $0x103e04,%eax
  10236a:	ff d0                	call   *%eax
  10236c:	e9 77 f3 ff ff       	jmp    1016e8 <all_ints>

00102371 <isr81>:
  102371:	6a 00                	push   $0x0
  102373:	6a 51                	push   $0x51
  102375:	0f a8                	push   %gs
  102377:	0f a0                	push   %fs
  102379:	06                   	push   %es
  10237a:	1e                   	push   %ds
  10237b:	60                   	pusha  
  10237c:	66 b8 10 00          	mov    $0x10,%ax
  102380:	8e d8                	mov    %eax,%ds
  102382:	8e c0                	mov    %eax,%es
  102384:	8e e0                	mov    %eax,%fs
  102386:	8e e8                	mov    %eax,%gs
  102388:	89 e0                	mov    %esp,%eax
  10238a:	50                   	push   %eax

0010238b <isr81.1>:
  10238b:	b8 04 3e 10 00       	mov    $0x103e04,%eax
  102390:	ff d0                	call   *%eax
  102392:	e9 51 f3 ff ff       	jmp    1016e8 <all_ints>

00102397 <isr82>:
  102397:	6a 00                	push   $0x0
  102399:	6a 52                	push   $0x52
  10239b:	0f a8                	push   %gs
  10239d:	0f a0                	push   %fs
  10239f:	06                   	push   %es
  1023a0:	1e                   	push   %ds
  1023a1:	60                   	pusha  
  1023a2:	66 b8 10 00          	mov    $0x10,%ax
  1023a6:	8e d8                	mov    %eax,%ds
  1023a8:	8e c0                	mov    %eax,%es
  1023aa:	8e e0                	mov    %eax,%fs
  1023ac:	8e e8                	mov    %eax,%gs
  1023ae:	89 e0                	mov    %esp,%eax
  1023b0:	50                   	push   %eax

001023b1 <isr82.1>:
  1023b1:	b8 04 3e 10 00       	mov    $0x103e04,%eax
  1023b6:	ff d0                	call   *%eax
  1023b8:	e9 2b f3 ff ff       	jmp    1016e8 <all_ints>

001023bd <isr83>:
  1023bd:	6a 00                	push   $0x0
  1023bf:	6a 53                	push   $0x53
  1023c1:	0f a8                	push   %gs
  1023c3:	0f a0                	push   %fs
  1023c5:	06                   	push   %es
  1023c6:	1e                   	push   %ds
  1023c7:	60                   	pusha  
  1023c8:	66 b8 10 00          	mov    $0x10,%ax
  1023cc:	8e d8                	mov    %eax,%ds
  1023ce:	8e c0                	mov    %eax,%es
  1023d0:	8e e0                	mov    %eax,%fs
  1023d2:	8e e8                	mov    %eax,%gs
  1023d4:	89 e0                	mov    %esp,%eax
  1023d6:	50                   	push   %eax

001023d7 <isr83.1>:
  1023d7:	b8 04 3e 10 00       	mov    $0x103e04,%eax
  1023dc:	ff d0                	call   *%eax
  1023de:	e9 05 f3 ff ff       	jmp    1016e8 <all_ints>

001023e3 <isr84>:
  1023e3:	6a 00                	push   $0x0
  1023e5:	6a 54                	push   $0x54
  1023e7:	0f a8                	push   %gs
  1023e9:	0f a0                	push   %fs
  1023eb:	06                   	push   %es
  1023ec:	1e                   	push   %ds
  1023ed:	60                   	pusha  
  1023ee:	66 b8 10 00          	mov    $0x10,%ax
  1023f2:	8e d8                	mov    %eax,%ds
  1023f4:	8e c0                	mov    %eax,%es
  1023f6:	8e e0                	mov    %eax,%fs
  1023f8:	8e e8                	mov    %eax,%gs
  1023fa:	89 e0                	mov    %esp,%eax
  1023fc:	50                   	push   %eax

001023fd <isr84.1>:
  1023fd:	b8 04 3e 10 00       	mov    $0x103e04,%eax
  102402:	ff d0                	call   *%eax
  102404:	e9 df f2 ff ff       	jmp    1016e8 <all_ints>

00102409 <isr85>:
  102409:	6a 00                	push   $0x0
  10240b:	6a 55                	push   $0x55
  10240d:	0f a8                	push   %gs
  10240f:	0f a0                	push   %fs
  102411:	06                   	push   %es
  102412:	1e                   	push   %ds
  102413:	60                   	pusha  
  102414:	66 b8 10 00          	mov    $0x10,%ax
  102418:	8e d8                	mov    %eax,%ds
  10241a:	8e c0                	mov    %eax,%es
  10241c:	8e e0                	mov    %eax,%fs
  10241e:	8e e8                	mov    %eax,%gs
  102420:	89 e0                	mov    %esp,%eax
  102422:	50                   	push   %eax

00102423 <isr85.1>:
  102423:	b8 04 3e 10 00       	mov    $0x103e04,%eax
  102428:	ff d0                	call   *%eax
  10242a:	e9 b9 f2 ff ff       	jmp    1016e8 <all_ints>

0010242f <isr86>:
  10242f:	6a 00                	push   $0x0
  102431:	6a 56                	push   $0x56
  102433:	0f a8                	push   %gs
  102435:	0f a0                	push   %fs
  102437:	06                   	push   %es
  102438:	1e                   	push   %ds
  102439:	60                   	pusha  
  10243a:	66 b8 10 00          	mov    $0x10,%ax
  10243e:	8e d8                	mov    %eax,%ds
  102440:	8e c0                	mov    %eax,%es
  102442:	8e e0                	mov    %eax,%fs
  102444:	8e e8                	mov    %eax,%gs
  102446:	89 e0                	mov    %esp,%eax
  102448:	50                   	push   %eax

00102449 <isr86.1>:
  102449:	b8 04 3e 10 00       	mov    $0x103e04,%eax
  10244e:	ff d0                	call   *%eax
  102450:	e9 93 f2 ff ff       	jmp    1016e8 <all_ints>

00102455 <isr87>:
  102455:	6a 00                	push   $0x0
  102457:	6a 57                	push   $0x57
  102459:	0f a8                	push   %gs
  10245b:	0f a0                	push   %fs
  10245d:	06                   	push   %es
  10245e:	1e                   	push   %ds
  10245f:	60                   	pusha  
  102460:	66 b8 10 00          	mov    $0x10,%ax
  102464:	8e d8                	mov    %eax,%ds
  102466:	8e c0                	mov    %eax,%es
  102468:	8e e0                	mov    %eax,%fs
  10246a:	8e e8                	mov    %eax,%gs
  10246c:	89 e0                	mov    %esp,%eax
  10246e:	50                   	push   %eax

0010246f <isr87.1>:
  10246f:	b8 04 3e 10 00       	mov    $0x103e04,%eax
  102474:	ff d0                	call   *%eax
  102476:	e9 6d f2 ff ff       	jmp    1016e8 <all_ints>

0010247b <isr88>:
  10247b:	6a 00                	push   $0x0
  10247d:	6a 58                	push   $0x58
  10247f:	0f a8                	push   %gs
  102481:	0f a0                	push   %fs
  102483:	06                   	push   %es
  102484:	1e                   	push   %ds
  102485:	60                   	pusha  
  102486:	66 b8 10 00          	mov    $0x10,%ax
  10248a:	8e d8                	mov    %eax,%ds
  10248c:	8e c0                	mov    %eax,%es
  10248e:	8e e0                	mov    %eax,%fs
  102490:	8e e8                	mov    %eax,%gs
  102492:	89 e0                	mov    %esp,%eax
  102494:	50                   	push   %eax

00102495 <isr88.1>:
  102495:	b8 04 3e 10 00       	mov    $0x103e04,%eax
  10249a:	ff d0                	call   *%eax
  10249c:	e9 47 f2 ff ff       	jmp    1016e8 <all_ints>

001024a1 <isr89>:
  1024a1:	6a 00                	push   $0x0
  1024a3:	6a 59                	push   $0x59
  1024a5:	0f a8                	push   %gs
  1024a7:	0f a0                	push   %fs
  1024a9:	06                   	push   %es
  1024aa:	1e                   	push   %ds
  1024ab:	60                   	pusha  
  1024ac:	66 b8 10 00          	mov    $0x10,%ax
  1024b0:	8e d8                	mov    %eax,%ds
  1024b2:	8e c0                	mov    %eax,%es
  1024b4:	8e e0                	mov    %eax,%fs
  1024b6:	8e e8                	mov    %eax,%gs
  1024b8:	89 e0                	mov    %esp,%eax
  1024ba:	50                   	push   %eax

001024bb <isr89.1>:
  1024bb:	b8 04 3e 10 00       	mov    $0x103e04,%eax
  1024c0:	ff d0                	call   *%eax
  1024c2:	e9 21 f2 ff ff       	jmp    1016e8 <all_ints>

001024c7 <isr90>:
  1024c7:	6a 00                	push   $0x0
  1024c9:	6a 5a                	push   $0x5a
  1024cb:	0f a8                	push   %gs
  1024cd:	0f a0                	push   %fs
  1024cf:	06                   	push   %es
  1024d0:	1e                   	push   %ds
  1024d1:	60                   	pusha  
  1024d2:	66 b8 10 00          	mov    $0x10,%ax
  1024d6:	8e d8                	mov    %eax,%ds
  1024d8:	8e c0                	mov    %eax,%es
  1024da:	8e e0                	mov    %eax,%fs
  1024dc:	8e e8                	mov    %eax,%gs
  1024de:	89 e0                	mov    %esp,%eax
  1024e0:	50                   	push   %eax

001024e1 <isr90.1>:
  1024e1:	b8 04 3e 10 00       	mov    $0x103e04,%eax
  1024e6:	ff d0                	call   *%eax
  1024e8:	e9 fb f1 ff ff       	jmp    1016e8 <all_ints>

001024ed <isr91>:
  1024ed:	6a 00                	push   $0x0
  1024ef:	6a 5b                	push   $0x5b
  1024f1:	0f a8                	push   %gs
  1024f3:	0f a0                	push   %fs
  1024f5:	06                   	push   %es
  1024f6:	1e                   	push   %ds
  1024f7:	60                   	pusha  
  1024f8:	66 b8 10 00          	mov    $0x10,%ax
  1024fc:	8e d8                	mov    %eax,%ds
  1024fe:	8e c0                	mov    %eax,%es
  102500:	8e e0                	mov    %eax,%fs
  102502:	8e e8                	mov    %eax,%gs
  102504:	89 e0                	mov    %esp,%eax
  102506:	50                   	push   %eax

00102507 <isr91.1>:
  102507:	b8 04 3e 10 00       	mov    $0x103e04,%eax
  10250c:	ff d0                	call   *%eax
  10250e:	e9 d5 f1 ff ff       	jmp    1016e8 <all_ints>

00102513 <isr92>:
  102513:	6a 00                	push   $0x0
  102515:	6a 5c                	push   $0x5c
  102517:	0f a8                	push   %gs
  102519:	0f a0                	push   %fs
  10251b:	06                   	push   %es
  10251c:	1e                   	push   %ds
  10251d:	60                   	pusha  
  10251e:	66 b8 10 00          	mov    $0x10,%ax
  102522:	8e d8                	mov    %eax,%ds
  102524:	8e c0                	mov    %eax,%es
  102526:	8e e0                	mov    %eax,%fs
  102528:	8e e8                	mov    %eax,%gs
  10252a:	89 e0                	mov    %esp,%eax
  10252c:	50                   	push   %eax

0010252d <isr92.1>:
  10252d:	b8 04 3e 10 00       	mov    $0x103e04,%eax
  102532:	ff d0                	call   *%eax
  102534:	e9 af f1 ff ff       	jmp    1016e8 <all_ints>

00102539 <isr93>:
  102539:	6a 00                	push   $0x0
  10253b:	6a 5d                	push   $0x5d
  10253d:	0f a8                	push   %gs
  10253f:	0f a0                	push   %fs
  102541:	06                   	push   %es
  102542:	1e                   	push   %ds
  102543:	60                   	pusha  
  102544:	66 b8 10 00          	mov    $0x10,%ax
  102548:	8e d8                	mov    %eax,%ds
  10254a:	8e c0                	mov    %eax,%es
  10254c:	8e e0                	mov    %eax,%fs
  10254e:	8e e8                	mov    %eax,%gs
  102550:	89 e0                	mov    %esp,%eax
  102552:	50                   	push   %eax

00102553 <isr93.1>:
  102553:	b8 04 3e 10 00       	mov    $0x103e04,%eax
  102558:	ff d0                	call   *%eax
  10255a:	e9 89 f1 ff ff       	jmp    1016e8 <all_ints>

0010255f <isr94>:
  10255f:	6a 00                	push   $0x0
  102561:	6a 5e                	push   $0x5e
  102563:	0f a8                	push   %gs
  102565:	0f a0                	push   %fs
  102567:	06                   	push   %es
  102568:	1e                   	push   %ds
  102569:	60                   	pusha  
  10256a:	66 b8 10 00          	mov    $0x10,%ax
  10256e:	8e d8                	mov    %eax,%ds
  102570:	8e c0                	mov    %eax,%es
  102572:	8e e0                	mov    %eax,%fs
  102574:	8e e8                	mov    %eax,%gs
  102576:	89 e0                	mov    %esp,%eax
  102578:	50                   	push   %eax

00102579 <isr94.1>:
  102579:	b8 04 3e 10 00       	mov    $0x103e04,%eax
  10257e:	ff d0                	call   *%eax
  102580:	e9 63 f1 ff ff       	jmp    1016e8 <all_ints>

00102585 <isr95>:
  102585:	6a 00                	push   $0x0
  102587:	6a 5f                	push   $0x5f
  102589:	0f a8                	push   %gs
  10258b:	0f a0                	push   %fs
  10258d:	06                   	push   %es
  10258e:	1e                   	push   %ds
  10258f:	60                   	pusha  
  102590:	66 b8 10 00          	mov    $0x10,%ax
  102594:	8e d8                	mov    %eax,%ds
  102596:	8e c0                	mov    %eax,%es
  102598:	8e e0                	mov    %eax,%fs
  10259a:	8e e8                	mov    %eax,%gs
  10259c:	89 e0                	mov    %esp,%eax
  10259e:	50                   	push   %eax

0010259f <isr95.1>:
  10259f:	b8 04 3e 10 00       	mov    $0x103e04,%eax
  1025a4:	ff d0                	call   *%eax
  1025a6:	e9 3d f1 ff ff       	jmp    1016e8 <all_ints>

001025ab <isr96>:
  1025ab:	6a 00                	push   $0x0
  1025ad:	6a 60                	push   $0x60
  1025af:	0f a8                	push   %gs
  1025b1:	0f a0                	push   %fs
  1025b3:	06                   	push   %es
  1025b4:	1e                   	push   %ds
  1025b5:	60                   	pusha  
  1025b6:	66 b8 10 00          	mov    $0x10,%ax
  1025ba:	8e d8                	mov    %eax,%ds
  1025bc:	8e c0                	mov    %eax,%es
  1025be:	8e e0                	mov    %eax,%fs
  1025c0:	8e e8                	mov    %eax,%gs
  1025c2:	89 e0                	mov    %esp,%eax
  1025c4:	50                   	push   %eax

001025c5 <isr96.1>:
  1025c5:	b8 04 3e 10 00       	mov    $0x103e04,%eax
  1025ca:	ff d0                	call   *%eax
  1025cc:	e9 17 f1 ff ff       	jmp    1016e8 <all_ints>

001025d1 <isr97>:
  1025d1:	6a 00                	push   $0x0
  1025d3:	6a 61                	push   $0x61
  1025d5:	0f a8                	push   %gs
  1025d7:	0f a0                	push   %fs
  1025d9:	06                   	push   %es
  1025da:	1e                   	push   %ds
  1025db:	60                   	pusha  
  1025dc:	66 b8 10 00          	mov    $0x10,%ax
  1025e0:	8e d8                	mov    %eax,%ds
  1025e2:	8e c0                	mov    %eax,%es
  1025e4:	8e e0                	mov    %eax,%fs
  1025e6:	8e e8                	mov    %eax,%gs
  1025e8:	89 e0                	mov    %esp,%eax
  1025ea:	50                   	push   %eax

001025eb <isr97.1>:
  1025eb:	b8 04 3e 10 00       	mov    $0x103e04,%eax
  1025f0:	ff d0                	call   *%eax
  1025f2:	e9 f1 f0 ff ff       	jmp    1016e8 <all_ints>

001025f7 <isr98>:
  1025f7:	6a 00                	push   $0x0
  1025f9:	6a 62                	push   $0x62
  1025fb:	0f a8                	push   %gs
  1025fd:	0f a0                	push   %fs
  1025ff:	06                   	push   %es
  102600:	1e                   	push   %ds
  102601:	60                   	pusha  
  102602:	66 b8 10 00          	mov    $0x10,%ax
  102606:	8e d8                	mov    %eax,%ds
  102608:	8e c0                	mov    %eax,%es
  10260a:	8e e0                	mov    %eax,%fs
  10260c:	8e e8                	mov    %eax,%gs
  10260e:	89 e0                	mov    %esp,%eax
  102610:	50                   	push   %eax

00102611 <isr98.1>:
  102611:	b8 04 3e 10 00       	mov    $0x103e04,%eax
  102616:	ff d0                	call   *%eax
  102618:	e9 cb f0 ff ff       	jmp    1016e8 <all_ints>

0010261d <isr99>:
  10261d:	6a 00                	push   $0x0
  10261f:	6a 63                	push   $0x63
  102621:	0f a8                	push   %gs
  102623:	0f a0                	push   %fs
  102625:	06                   	push   %es
  102626:	1e                   	push   %ds
  102627:	60                   	pusha  
  102628:	66 b8 10 00          	mov    $0x10,%ax
  10262c:	8e d8                	mov    %eax,%ds
  10262e:	8e c0                	mov    %eax,%es
  102630:	8e e0                	mov    %eax,%fs
  102632:	8e e8                	mov    %eax,%gs
  102634:	89 e0                	mov    %esp,%eax
  102636:	50                   	push   %eax

00102637 <isr99.1>:
  102637:	b8 04 3e 10 00       	mov    $0x103e04,%eax
  10263c:	ff d0                	call   *%eax
  10263e:	e9 a5 f0 ff ff       	jmp    1016e8 <all_ints>

00102643 <isr100>:
  102643:	6a 00                	push   $0x0
  102645:	6a 64                	push   $0x64
  102647:	0f a8                	push   %gs
  102649:	0f a0                	push   %fs
  10264b:	06                   	push   %es
  10264c:	1e                   	push   %ds
  10264d:	60                   	pusha  
  10264e:	66 b8 10 00          	mov    $0x10,%ax
  102652:	8e d8                	mov    %eax,%ds
  102654:	8e c0                	mov    %eax,%es
  102656:	8e e0                	mov    %eax,%fs
  102658:	8e e8                	mov    %eax,%gs
  10265a:	89 e0                	mov    %esp,%eax
  10265c:	50                   	push   %eax

0010265d <isr100.1>:
  10265d:	b8 04 3e 10 00       	mov    $0x103e04,%eax
  102662:	ff d0                	call   *%eax
  102664:	e9 7f f0 ff ff       	jmp    1016e8 <all_ints>

00102669 <isr101>:
  102669:	6a 00                	push   $0x0
  10266b:	6a 65                	push   $0x65
  10266d:	0f a8                	push   %gs
  10266f:	0f a0                	push   %fs
  102671:	06                   	push   %es
  102672:	1e                   	push   %ds
  102673:	60                   	pusha  
  102674:	66 b8 10 00          	mov    $0x10,%ax
  102678:	8e d8                	mov    %eax,%ds
  10267a:	8e c0                	mov    %eax,%es
  10267c:	8e e0                	mov    %eax,%fs
  10267e:	8e e8                	mov    %eax,%gs
  102680:	89 e0                	mov    %esp,%eax
  102682:	50                   	push   %eax

00102683 <isr101.1>:
  102683:	b8 04 3e 10 00       	mov    $0x103e04,%eax
  102688:	ff d0                	call   *%eax
  10268a:	e9 59 f0 ff ff       	jmp    1016e8 <all_ints>

0010268f <isr102>:
  10268f:	6a 00                	push   $0x0
  102691:	6a 66                	push   $0x66
  102693:	0f a8                	push   %gs
  102695:	0f a0                	push   %fs
  102697:	06                   	push   %es
  102698:	1e                   	push   %ds
  102699:	60                   	pusha  
  10269a:	66 b8 10 00          	mov    $0x10,%ax
  10269e:	8e d8                	mov    %eax,%ds
  1026a0:	8e c0                	mov    %eax,%es
  1026a2:	8e e0                	mov    %eax,%fs
  1026a4:	8e e8                	mov    %eax,%gs
  1026a6:	89 e0                	mov    %esp,%eax
  1026a8:	50                   	push   %eax

001026a9 <isr102.1>:
  1026a9:	b8 04 3e 10 00       	mov    $0x103e04,%eax
  1026ae:	ff d0                	call   *%eax
  1026b0:	e9 33 f0 ff ff       	jmp    1016e8 <all_ints>

001026b5 <isr103>:
  1026b5:	6a 00                	push   $0x0
  1026b7:	6a 67                	push   $0x67
  1026b9:	0f a8                	push   %gs
  1026bb:	0f a0                	push   %fs
  1026bd:	06                   	push   %es
  1026be:	1e                   	push   %ds
  1026bf:	60                   	pusha  
  1026c0:	66 b8 10 00          	mov    $0x10,%ax
  1026c4:	8e d8                	mov    %eax,%ds
  1026c6:	8e c0                	mov    %eax,%es
  1026c8:	8e e0                	mov    %eax,%fs
  1026ca:	8e e8                	mov    %eax,%gs
  1026cc:	89 e0                	mov    %esp,%eax
  1026ce:	50                   	push   %eax

001026cf <isr103.1>:
  1026cf:	b8 04 3e 10 00       	mov    $0x103e04,%eax
  1026d4:	ff d0                	call   *%eax
  1026d6:	e9 0d f0 ff ff       	jmp    1016e8 <all_ints>

001026db <isr104>:
  1026db:	6a 00                	push   $0x0
  1026dd:	6a 68                	push   $0x68
  1026df:	0f a8                	push   %gs
  1026e1:	0f a0                	push   %fs
  1026e3:	06                   	push   %es
  1026e4:	1e                   	push   %ds
  1026e5:	60                   	pusha  
  1026e6:	66 b8 10 00          	mov    $0x10,%ax
  1026ea:	8e d8                	mov    %eax,%ds
  1026ec:	8e c0                	mov    %eax,%es
  1026ee:	8e e0                	mov    %eax,%fs
  1026f0:	8e e8                	mov    %eax,%gs
  1026f2:	89 e0                	mov    %esp,%eax
  1026f4:	50                   	push   %eax

001026f5 <isr104.1>:
  1026f5:	b8 04 3e 10 00       	mov    $0x103e04,%eax
  1026fa:	ff d0                	call   *%eax
  1026fc:	e9 e7 ef ff ff       	jmp    1016e8 <all_ints>

00102701 <isr105>:
  102701:	6a 00                	push   $0x0
  102703:	6a 69                	push   $0x69
  102705:	0f a8                	push   %gs
  102707:	0f a0                	push   %fs
  102709:	06                   	push   %es
  10270a:	1e                   	push   %ds
  10270b:	60                   	pusha  
  10270c:	66 b8 10 00          	mov    $0x10,%ax
  102710:	8e d8                	mov    %eax,%ds
  102712:	8e c0                	mov    %eax,%es
  102714:	8e e0                	mov    %eax,%fs
  102716:	8e e8                	mov    %eax,%gs
  102718:	89 e0                	mov    %esp,%eax
  10271a:	50                   	push   %eax

0010271b <isr105.1>:
  10271b:	b8 04 3e 10 00       	mov    $0x103e04,%eax
  102720:	ff d0                	call   *%eax
  102722:	e9 c1 ef ff ff       	jmp    1016e8 <all_ints>

00102727 <isr106>:
  102727:	6a 00                	push   $0x0
  102729:	6a 6a                	push   $0x6a
  10272b:	0f a8                	push   %gs
  10272d:	0f a0                	push   %fs
  10272f:	06                   	push   %es
  102730:	1e                   	push   %ds
  102731:	60                   	pusha  
  102732:	66 b8 10 00          	mov    $0x10,%ax
  102736:	8e d8                	mov    %eax,%ds
  102738:	8e c0                	mov    %eax,%es
  10273a:	8e e0                	mov    %eax,%fs
  10273c:	8e e8                	mov    %eax,%gs
  10273e:	89 e0                	mov    %esp,%eax
  102740:	50                   	push   %eax

00102741 <isr106.1>:
  102741:	b8 04 3e 10 00       	mov    $0x103e04,%eax
  102746:	ff d0                	call   *%eax
  102748:	e9 9b ef ff ff       	jmp    1016e8 <all_ints>

0010274d <isr107>:
  10274d:	6a 00                	push   $0x0
  10274f:	6a 6b                	push   $0x6b
  102751:	0f a8                	push   %gs
  102753:	0f a0                	push   %fs
  102755:	06                   	push   %es
  102756:	1e                   	push   %ds
  102757:	60                   	pusha  
  102758:	66 b8 10 00          	mov    $0x10,%ax
  10275c:	8e d8                	mov    %eax,%ds
  10275e:	8e c0                	mov    %eax,%es
  102760:	8e e0                	mov    %eax,%fs
  102762:	8e e8                	mov    %eax,%gs
  102764:	89 e0                	mov    %esp,%eax
  102766:	50                   	push   %eax

00102767 <isr107.1>:
  102767:	b8 04 3e 10 00       	mov    $0x103e04,%eax
  10276c:	ff d0                	call   *%eax
  10276e:	e9 75 ef ff ff       	jmp    1016e8 <all_ints>

00102773 <isr108>:
  102773:	6a 00                	push   $0x0
  102775:	6a 6c                	push   $0x6c
  102777:	0f a8                	push   %gs
  102779:	0f a0                	push   %fs
  10277b:	06                   	push   %es
  10277c:	1e                   	push   %ds
  10277d:	60                   	pusha  
  10277e:	66 b8 10 00          	mov    $0x10,%ax
  102782:	8e d8                	mov    %eax,%ds
  102784:	8e c0                	mov    %eax,%es
  102786:	8e e0                	mov    %eax,%fs
  102788:	8e e8                	mov    %eax,%gs
  10278a:	89 e0                	mov    %esp,%eax
  10278c:	50                   	push   %eax

0010278d <isr108.1>:
  10278d:	b8 04 3e 10 00       	mov    $0x103e04,%eax
  102792:	ff d0                	call   *%eax
  102794:	e9 4f ef ff ff       	jmp    1016e8 <all_ints>

00102799 <isr109>:
  102799:	6a 00                	push   $0x0
  10279b:	6a 6d                	push   $0x6d
  10279d:	0f a8                	push   %gs
  10279f:	0f a0                	push   %fs
  1027a1:	06                   	push   %es
  1027a2:	1e                   	push   %ds
  1027a3:	60                   	pusha  
  1027a4:	66 b8 10 00          	mov    $0x10,%ax
  1027a8:	8e d8                	mov    %eax,%ds
  1027aa:	8e c0                	mov    %eax,%es
  1027ac:	8e e0                	mov    %eax,%fs
  1027ae:	8e e8                	mov    %eax,%gs
  1027b0:	89 e0                	mov    %esp,%eax
  1027b2:	50                   	push   %eax

001027b3 <isr109.1>:
  1027b3:	b8 04 3e 10 00       	mov    $0x103e04,%eax
  1027b8:	ff d0                	call   *%eax
  1027ba:	e9 29 ef ff ff       	jmp    1016e8 <all_ints>

001027bf <isr110>:
  1027bf:	6a 00                	push   $0x0
  1027c1:	6a 6e                	push   $0x6e
  1027c3:	0f a8                	push   %gs
  1027c5:	0f a0                	push   %fs
  1027c7:	06                   	push   %es
  1027c8:	1e                   	push   %ds
  1027c9:	60                   	pusha  
  1027ca:	66 b8 10 00          	mov    $0x10,%ax
  1027ce:	8e d8                	mov    %eax,%ds
  1027d0:	8e c0                	mov    %eax,%es
  1027d2:	8e e0                	mov    %eax,%fs
  1027d4:	8e e8                	mov    %eax,%gs
  1027d6:	89 e0                	mov    %esp,%eax
  1027d8:	50                   	push   %eax

001027d9 <isr110.1>:
  1027d9:	b8 04 3e 10 00       	mov    $0x103e04,%eax
  1027de:	ff d0                	call   *%eax
  1027e0:	e9 03 ef ff ff       	jmp    1016e8 <all_ints>

001027e5 <isr111>:
  1027e5:	6a 00                	push   $0x0
  1027e7:	6a 6f                	push   $0x6f
  1027e9:	0f a8                	push   %gs
  1027eb:	0f a0                	push   %fs
  1027ed:	06                   	push   %es
  1027ee:	1e                   	push   %ds
  1027ef:	60                   	pusha  
  1027f0:	66 b8 10 00          	mov    $0x10,%ax
  1027f4:	8e d8                	mov    %eax,%ds
  1027f6:	8e c0                	mov    %eax,%es
  1027f8:	8e e0                	mov    %eax,%fs
  1027fa:	8e e8                	mov    %eax,%gs
  1027fc:	89 e0                	mov    %esp,%eax
  1027fe:	50                   	push   %eax

001027ff <isr111.1>:
  1027ff:	b8 04 3e 10 00       	mov    $0x103e04,%eax
  102804:	ff d0                	call   *%eax
  102806:	e9 dd ee ff ff       	jmp    1016e8 <all_ints>

0010280b <isr112>:
  10280b:	6a 00                	push   $0x0
  10280d:	6a 70                	push   $0x70
  10280f:	0f a8                	push   %gs
  102811:	0f a0                	push   %fs
  102813:	06                   	push   %es
  102814:	1e                   	push   %ds
  102815:	60                   	pusha  
  102816:	66 b8 10 00          	mov    $0x10,%ax
  10281a:	8e d8                	mov    %eax,%ds
  10281c:	8e c0                	mov    %eax,%es
  10281e:	8e e0                	mov    %eax,%fs
  102820:	8e e8                	mov    %eax,%gs
  102822:	89 e0                	mov    %esp,%eax
  102824:	50                   	push   %eax

00102825 <isr112.1>:
  102825:	b8 04 3e 10 00       	mov    $0x103e04,%eax
  10282a:	ff d0                	call   *%eax
  10282c:	e9 b7 ee ff ff       	jmp    1016e8 <all_ints>

00102831 <isr113>:
  102831:	6a 00                	push   $0x0
  102833:	6a 71                	push   $0x71
  102835:	0f a8                	push   %gs
  102837:	0f a0                	push   %fs
  102839:	06                   	push   %es
  10283a:	1e                   	push   %ds
  10283b:	60                   	pusha  
  10283c:	66 b8 10 00          	mov    $0x10,%ax
  102840:	8e d8                	mov    %eax,%ds
  102842:	8e c0                	mov    %eax,%es
  102844:	8e e0                	mov    %eax,%fs
  102846:	8e e8                	mov    %eax,%gs
  102848:	89 e0                	mov    %esp,%eax
  10284a:	50                   	push   %eax

0010284b <isr113.1>:
  10284b:	b8 04 3e 10 00       	mov    $0x103e04,%eax
  102850:	ff d0                	call   *%eax
  102852:	e9 91 ee ff ff       	jmp    1016e8 <all_ints>

00102857 <isr114>:
  102857:	6a 00                	push   $0x0
  102859:	6a 72                	push   $0x72
  10285b:	0f a8                	push   %gs
  10285d:	0f a0                	push   %fs
  10285f:	06                   	push   %es
  102860:	1e                   	push   %ds
  102861:	60                   	pusha  
  102862:	66 b8 10 00          	mov    $0x10,%ax
  102866:	8e d8                	mov    %eax,%ds
  102868:	8e c0                	mov    %eax,%es
  10286a:	8e e0                	mov    %eax,%fs
  10286c:	8e e8                	mov    %eax,%gs
  10286e:	89 e0                	mov    %esp,%eax
  102870:	50                   	push   %eax

00102871 <isr114.1>:
  102871:	b8 04 3e 10 00       	mov    $0x103e04,%eax
  102876:	ff d0                	call   *%eax
  102878:	e9 6b ee ff ff       	jmp    1016e8 <all_ints>

0010287d <isr115>:
  10287d:	6a 00                	push   $0x0
  10287f:	6a 73                	push   $0x73
  102881:	0f a8                	push   %gs
  102883:	0f a0                	push   %fs
  102885:	06                   	push   %es
  102886:	1e                   	push   %ds
  102887:	60                   	pusha  
  102888:	66 b8 10 00          	mov    $0x10,%ax
  10288c:	8e d8                	mov    %eax,%ds
  10288e:	8e c0                	mov    %eax,%es
  102890:	8e e0                	mov    %eax,%fs
  102892:	8e e8                	mov    %eax,%gs
  102894:	89 e0                	mov    %esp,%eax
  102896:	50                   	push   %eax

00102897 <isr115.1>:
  102897:	b8 04 3e 10 00       	mov    $0x103e04,%eax
  10289c:	ff d0                	call   *%eax
  10289e:	e9 45 ee ff ff       	jmp    1016e8 <all_ints>

001028a3 <isr116>:
  1028a3:	6a 00                	push   $0x0
  1028a5:	6a 74                	push   $0x74
  1028a7:	0f a8                	push   %gs
  1028a9:	0f a0                	push   %fs
  1028ab:	06                   	push   %es
  1028ac:	1e                   	push   %ds
  1028ad:	60                   	pusha  
  1028ae:	66 b8 10 00          	mov    $0x10,%ax
  1028b2:	8e d8                	mov    %eax,%ds
  1028b4:	8e c0                	mov    %eax,%es
  1028b6:	8e e0                	mov    %eax,%fs
  1028b8:	8e e8                	mov    %eax,%gs
  1028ba:	89 e0                	mov    %esp,%eax
  1028bc:	50                   	push   %eax

001028bd <isr116.1>:
  1028bd:	b8 04 3e 10 00       	mov    $0x103e04,%eax
  1028c2:	ff d0                	call   *%eax
  1028c4:	e9 1f ee ff ff       	jmp    1016e8 <all_ints>

001028c9 <isr117>:
  1028c9:	6a 00                	push   $0x0
  1028cb:	6a 75                	push   $0x75
  1028cd:	0f a8                	push   %gs
  1028cf:	0f a0                	push   %fs
  1028d1:	06                   	push   %es
  1028d2:	1e                   	push   %ds
  1028d3:	60                   	pusha  
  1028d4:	66 b8 10 00          	mov    $0x10,%ax
  1028d8:	8e d8                	mov    %eax,%ds
  1028da:	8e c0                	mov    %eax,%es
  1028dc:	8e e0                	mov    %eax,%fs
  1028de:	8e e8                	mov    %eax,%gs
  1028e0:	89 e0                	mov    %esp,%eax
  1028e2:	50                   	push   %eax

001028e3 <isr117.1>:
  1028e3:	b8 04 3e 10 00       	mov    $0x103e04,%eax
  1028e8:	ff d0                	call   *%eax
  1028ea:	e9 f9 ed ff ff       	jmp    1016e8 <all_ints>

001028ef <isr118>:
  1028ef:	6a 00                	push   $0x0
  1028f1:	6a 76                	push   $0x76
  1028f3:	0f a8                	push   %gs
  1028f5:	0f a0                	push   %fs
  1028f7:	06                   	push   %es
  1028f8:	1e                   	push   %ds
  1028f9:	60                   	pusha  
  1028fa:	66 b8 10 00          	mov    $0x10,%ax
  1028fe:	8e d8                	mov    %eax,%ds
  102900:	8e c0                	mov    %eax,%es
  102902:	8e e0                	mov    %eax,%fs
  102904:	8e e8                	mov    %eax,%gs
  102906:	89 e0                	mov    %esp,%eax
  102908:	50                   	push   %eax

00102909 <isr118.1>:
  102909:	b8 04 3e 10 00       	mov    $0x103e04,%eax
  10290e:	ff d0                	call   *%eax
  102910:	e9 d3 ed ff ff       	jmp    1016e8 <all_ints>

00102915 <isr119>:
  102915:	6a 00                	push   $0x0
  102917:	6a 77                	push   $0x77
  102919:	0f a8                	push   %gs
  10291b:	0f a0                	push   %fs
  10291d:	06                   	push   %es
  10291e:	1e                   	push   %ds
  10291f:	60                   	pusha  
  102920:	66 b8 10 00          	mov    $0x10,%ax
  102924:	8e d8                	mov    %eax,%ds
  102926:	8e c0                	mov    %eax,%es
  102928:	8e e0                	mov    %eax,%fs
  10292a:	8e e8                	mov    %eax,%gs
  10292c:	89 e0                	mov    %esp,%eax
  10292e:	50                   	push   %eax

0010292f <isr119.1>:
  10292f:	b8 04 3e 10 00       	mov    $0x103e04,%eax
  102934:	ff d0                	call   *%eax
  102936:	e9 ad ed ff ff       	jmp    1016e8 <all_ints>

0010293b <isr120>:
  10293b:	6a 00                	push   $0x0
  10293d:	6a 78                	push   $0x78
  10293f:	0f a8                	push   %gs
  102941:	0f a0                	push   %fs
  102943:	06                   	push   %es
  102944:	1e                   	push   %ds
  102945:	60                   	pusha  
  102946:	66 b8 10 00          	mov    $0x10,%ax
  10294a:	8e d8                	mov    %eax,%ds
  10294c:	8e c0                	mov    %eax,%es
  10294e:	8e e0                	mov    %eax,%fs
  102950:	8e e8                	mov    %eax,%gs
  102952:	89 e0                	mov    %esp,%eax
  102954:	50                   	push   %eax

00102955 <isr120.1>:
  102955:	b8 04 3e 10 00       	mov    $0x103e04,%eax
  10295a:	ff d0                	call   *%eax
  10295c:	e9 87 ed ff ff       	jmp    1016e8 <all_ints>

00102961 <isr121>:
  102961:	6a 00                	push   $0x0
  102963:	6a 79                	push   $0x79
  102965:	0f a8                	push   %gs
  102967:	0f a0                	push   %fs
  102969:	06                   	push   %es
  10296a:	1e                   	push   %ds
  10296b:	60                   	pusha  
  10296c:	66 b8 10 00          	mov    $0x10,%ax
  102970:	8e d8                	mov    %eax,%ds
  102972:	8e c0                	mov    %eax,%es
  102974:	8e e0                	mov    %eax,%fs
  102976:	8e e8                	mov    %eax,%gs
  102978:	89 e0                	mov    %esp,%eax
  10297a:	50                   	push   %eax

0010297b <isr121.1>:
  10297b:	b8 04 3e 10 00       	mov    $0x103e04,%eax
  102980:	ff d0                	call   *%eax
  102982:	e9 61 ed ff ff       	jmp    1016e8 <all_ints>

00102987 <isr122>:
  102987:	6a 00                	push   $0x0
  102989:	6a 7a                	push   $0x7a
  10298b:	0f a8                	push   %gs
  10298d:	0f a0                	push   %fs
  10298f:	06                   	push   %es
  102990:	1e                   	push   %ds
  102991:	60                   	pusha  
  102992:	66 b8 10 00          	mov    $0x10,%ax
  102996:	8e d8                	mov    %eax,%ds
  102998:	8e c0                	mov    %eax,%es
  10299a:	8e e0                	mov    %eax,%fs
  10299c:	8e e8                	mov    %eax,%gs
  10299e:	89 e0                	mov    %esp,%eax
  1029a0:	50                   	push   %eax

001029a1 <isr122.1>:
  1029a1:	b8 04 3e 10 00       	mov    $0x103e04,%eax
  1029a6:	ff d0                	call   *%eax
  1029a8:	e9 3b ed ff ff       	jmp    1016e8 <all_ints>

001029ad <isr123>:
  1029ad:	6a 00                	push   $0x0
  1029af:	6a 7b                	push   $0x7b
  1029b1:	0f a8                	push   %gs
  1029b3:	0f a0                	push   %fs
  1029b5:	06                   	push   %es
  1029b6:	1e                   	push   %ds
  1029b7:	60                   	pusha  
  1029b8:	66 b8 10 00          	mov    $0x10,%ax
  1029bc:	8e d8                	mov    %eax,%ds
  1029be:	8e c0                	mov    %eax,%es
  1029c0:	8e e0                	mov    %eax,%fs
  1029c2:	8e e8                	mov    %eax,%gs
  1029c4:	89 e0                	mov    %esp,%eax
  1029c6:	50                   	push   %eax

001029c7 <isr123.1>:
  1029c7:	b8 04 3e 10 00       	mov    $0x103e04,%eax
  1029cc:	ff d0                	call   *%eax
  1029ce:	e9 15 ed ff ff       	jmp    1016e8 <all_ints>

001029d3 <isr124>:
  1029d3:	6a 00                	push   $0x0
  1029d5:	6a 7c                	push   $0x7c
  1029d7:	0f a8                	push   %gs
  1029d9:	0f a0                	push   %fs
  1029db:	06                   	push   %es
  1029dc:	1e                   	push   %ds
  1029dd:	60                   	pusha  
  1029de:	66 b8 10 00          	mov    $0x10,%ax
  1029e2:	8e d8                	mov    %eax,%ds
  1029e4:	8e c0                	mov    %eax,%es
  1029e6:	8e e0                	mov    %eax,%fs
  1029e8:	8e e8                	mov    %eax,%gs
  1029ea:	89 e0                	mov    %esp,%eax
  1029ec:	50                   	push   %eax

001029ed <isr124.1>:
  1029ed:	b8 04 3e 10 00       	mov    $0x103e04,%eax
  1029f2:	ff d0                	call   *%eax
  1029f4:	e9 ef ec ff ff       	jmp    1016e8 <all_ints>

001029f9 <isr125>:
  1029f9:	6a 00                	push   $0x0
  1029fb:	6a 7d                	push   $0x7d
  1029fd:	0f a8                	push   %gs
  1029ff:	0f a0                	push   %fs
  102a01:	06                   	push   %es
  102a02:	1e                   	push   %ds
  102a03:	60                   	pusha  
  102a04:	66 b8 10 00          	mov    $0x10,%ax
  102a08:	8e d8                	mov    %eax,%ds
  102a0a:	8e c0                	mov    %eax,%es
  102a0c:	8e e0                	mov    %eax,%fs
  102a0e:	8e e8                	mov    %eax,%gs
  102a10:	89 e0                	mov    %esp,%eax
  102a12:	50                   	push   %eax

00102a13 <isr125.1>:
  102a13:	b8 04 3e 10 00       	mov    $0x103e04,%eax
  102a18:	ff d0                	call   *%eax
  102a1a:	e9 c9 ec ff ff       	jmp    1016e8 <all_ints>

00102a1f <isr126>:
  102a1f:	6a 00                	push   $0x0
  102a21:	6a 7e                	push   $0x7e
  102a23:	0f a8                	push   %gs
  102a25:	0f a0                	push   %fs
  102a27:	06                   	push   %es
  102a28:	1e                   	push   %ds
  102a29:	60                   	pusha  
  102a2a:	66 b8 10 00          	mov    $0x10,%ax
  102a2e:	8e d8                	mov    %eax,%ds
  102a30:	8e c0                	mov    %eax,%es
  102a32:	8e e0                	mov    %eax,%fs
  102a34:	8e e8                	mov    %eax,%gs
  102a36:	89 e0                	mov    %esp,%eax
  102a38:	50                   	push   %eax

00102a39 <isr126.1>:
  102a39:	b8 04 3e 10 00       	mov    $0x103e04,%eax
  102a3e:	ff d0                	call   *%eax
  102a40:	e9 a3 ec ff ff       	jmp    1016e8 <all_ints>

00102a45 <isr127>:
  102a45:	6a 00                	push   $0x0
  102a47:	6a 7f                	push   $0x7f
  102a49:	0f a8                	push   %gs
  102a4b:	0f a0                	push   %fs
  102a4d:	06                   	push   %es
  102a4e:	1e                   	push   %ds
  102a4f:	60                   	pusha  
  102a50:	66 b8 10 00          	mov    $0x10,%ax
  102a54:	8e d8                	mov    %eax,%ds
  102a56:	8e c0                	mov    %eax,%es
  102a58:	8e e0                	mov    %eax,%fs
  102a5a:	8e e8                	mov    %eax,%gs
  102a5c:	89 e0                	mov    %esp,%eax
  102a5e:	50                   	push   %eax

00102a5f <isr127.1>:
  102a5f:	b8 04 3e 10 00       	mov    $0x103e04,%eax
  102a64:	ff d0                	call   *%eax
  102a66:	e9 7d ec ff ff       	jmp    1016e8 <all_ints>

00102a6b <isr128>:
  102a6b:	6a 00                	push   $0x0
  102a6d:	6a 80                	push   $0xffffff80
  102a6f:	0f a8                	push   %gs
  102a71:	0f a0                	push   %fs
  102a73:	06                   	push   %es
  102a74:	1e                   	push   %ds
  102a75:	60                   	pusha  
  102a76:	66 b8 10 00          	mov    $0x10,%ax
  102a7a:	8e d8                	mov    %eax,%ds
  102a7c:	8e c0                	mov    %eax,%es
  102a7e:	8e e0                	mov    %eax,%fs
  102a80:	8e e8                	mov    %eax,%gs
  102a82:	89 e0                	mov    %esp,%eax
  102a84:	50                   	push   %eax

00102a85 <isr128.1>:
  102a85:	b8 04 3e 10 00       	mov    $0x103e04,%eax
  102a8a:	ff d0                	call   *%eax
  102a8c:	e9 57 ec ff ff       	jmp    1016e8 <all_ints>

00102a91 <isr129>:
  102a91:	6a 00                	push   $0x0
  102a93:	6a 81                	push   $0xffffff81
  102a95:	0f a8                	push   %gs
  102a97:	0f a0                	push   %fs
  102a99:	06                   	push   %es
  102a9a:	1e                   	push   %ds
  102a9b:	60                   	pusha  
  102a9c:	66 b8 10 00          	mov    $0x10,%ax
  102aa0:	8e d8                	mov    %eax,%ds
  102aa2:	8e c0                	mov    %eax,%es
  102aa4:	8e e0                	mov    %eax,%fs
  102aa6:	8e e8                	mov    %eax,%gs
  102aa8:	89 e0                	mov    %esp,%eax
  102aaa:	50                   	push   %eax

00102aab <isr129.1>:
  102aab:	b8 04 3e 10 00       	mov    $0x103e04,%eax
  102ab0:	ff d0                	call   *%eax
  102ab2:	e9 31 ec ff ff       	jmp    1016e8 <all_ints>

00102ab7 <isr130>:
  102ab7:	6a 00                	push   $0x0
  102ab9:	6a 82                	push   $0xffffff82
  102abb:	0f a8                	push   %gs
  102abd:	0f a0                	push   %fs
  102abf:	06                   	push   %es
  102ac0:	1e                   	push   %ds
  102ac1:	60                   	pusha  
  102ac2:	66 b8 10 00          	mov    $0x10,%ax
  102ac6:	8e d8                	mov    %eax,%ds
  102ac8:	8e c0                	mov    %eax,%es
  102aca:	8e e0                	mov    %eax,%fs
  102acc:	8e e8                	mov    %eax,%gs
  102ace:	89 e0                	mov    %esp,%eax
  102ad0:	50                   	push   %eax

00102ad1 <isr130.1>:
  102ad1:	b8 04 3e 10 00       	mov    $0x103e04,%eax
  102ad6:	ff d0                	call   *%eax
  102ad8:	e9 0b ec ff ff       	jmp    1016e8 <all_ints>

00102add <isr131>:
  102add:	6a 00                	push   $0x0
  102adf:	6a 83                	push   $0xffffff83
  102ae1:	0f a8                	push   %gs
  102ae3:	0f a0                	push   %fs
  102ae5:	06                   	push   %es
  102ae6:	1e                   	push   %ds
  102ae7:	60                   	pusha  
  102ae8:	66 b8 10 00          	mov    $0x10,%ax
  102aec:	8e d8                	mov    %eax,%ds
  102aee:	8e c0                	mov    %eax,%es
  102af0:	8e e0                	mov    %eax,%fs
  102af2:	8e e8                	mov    %eax,%gs
  102af4:	89 e0                	mov    %esp,%eax
  102af6:	50                   	push   %eax

00102af7 <isr131.1>:
  102af7:	b8 04 3e 10 00       	mov    $0x103e04,%eax
  102afc:	ff d0                	call   *%eax
  102afe:	e9 e5 eb ff ff       	jmp    1016e8 <all_ints>

00102b03 <isr132>:
  102b03:	6a 00                	push   $0x0
  102b05:	6a 84                	push   $0xffffff84
  102b07:	0f a8                	push   %gs
  102b09:	0f a0                	push   %fs
  102b0b:	06                   	push   %es
  102b0c:	1e                   	push   %ds
  102b0d:	60                   	pusha  
  102b0e:	66 b8 10 00          	mov    $0x10,%ax
  102b12:	8e d8                	mov    %eax,%ds
  102b14:	8e c0                	mov    %eax,%es
  102b16:	8e e0                	mov    %eax,%fs
  102b18:	8e e8                	mov    %eax,%gs
  102b1a:	89 e0                	mov    %esp,%eax
  102b1c:	50                   	push   %eax

00102b1d <isr132.1>:
  102b1d:	b8 04 3e 10 00       	mov    $0x103e04,%eax
  102b22:	ff d0                	call   *%eax
  102b24:	e9 bf eb ff ff       	jmp    1016e8 <all_ints>

00102b29 <isr133>:
  102b29:	6a 00                	push   $0x0
  102b2b:	6a 85                	push   $0xffffff85
  102b2d:	0f a8                	push   %gs
  102b2f:	0f a0                	push   %fs
  102b31:	06                   	push   %es
  102b32:	1e                   	push   %ds
  102b33:	60                   	pusha  
  102b34:	66 b8 10 00          	mov    $0x10,%ax
  102b38:	8e d8                	mov    %eax,%ds
  102b3a:	8e c0                	mov    %eax,%es
  102b3c:	8e e0                	mov    %eax,%fs
  102b3e:	8e e8                	mov    %eax,%gs
  102b40:	89 e0                	mov    %esp,%eax
  102b42:	50                   	push   %eax

00102b43 <isr133.1>:
  102b43:	b8 04 3e 10 00       	mov    $0x103e04,%eax
  102b48:	ff d0                	call   *%eax
  102b4a:	e9 99 eb ff ff       	jmp    1016e8 <all_ints>

00102b4f <isr134>:
  102b4f:	6a 00                	push   $0x0
  102b51:	6a 86                	push   $0xffffff86
  102b53:	0f a8                	push   %gs
  102b55:	0f a0                	push   %fs
  102b57:	06                   	push   %es
  102b58:	1e                   	push   %ds
  102b59:	60                   	pusha  
  102b5a:	66 b8 10 00          	mov    $0x10,%ax
  102b5e:	8e d8                	mov    %eax,%ds
  102b60:	8e c0                	mov    %eax,%es
  102b62:	8e e0                	mov    %eax,%fs
  102b64:	8e e8                	mov    %eax,%gs
  102b66:	89 e0                	mov    %esp,%eax
  102b68:	50                   	push   %eax

00102b69 <isr134.1>:
  102b69:	b8 04 3e 10 00       	mov    $0x103e04,%eax
  102b6e:	ff d0                	call   *%eax
  102b70:	e9 73 eb ff ff       	jmp    1016e8 <all_ints>

00102b75 <isr135>:
  102b75:	6a 00                	push   $0x0
  102b77:	6a 87                	push   $0xffffff87
  102b79:	0f a8                	push   %gs
  102b7b:	0f a0                	push   %fs
  102b7d:	06                   	push   %es
  102b7e:	1e                   	push   %ds
  102b7f:	60                   	pusha  
  102b80:	66 b8 10 00          	mov    $0x10,%ax
  102b84:	8e d8                	mov    %eax,%ds
  102b86:	8e c0                	mov    %eax,%es
  102b88:	8e e0                	mov    %eax,%fs
  102b8a:	8e e8                	mov    %eax,%gs
  102b8c:	89 e0                	mov    %esp,%eax
  102b8e:	50                   	push   %eax

00102b8f <isr135.1>:
  102b8f:	b8 04 3e 10 00       	mov    $0x103e04,%eax
  102b94:	ff d0                	call   *%eax
  102b96:	e9 4d eb ff ff       	jmp    1016e8 <all_ints>

00102b9b <isr136>:
  102b9b:	6a 00                	push   $0x0
  102b9d:	6a 88                	push   $0xffffff88
  102b9f:	0f a8                	push   %gs
  102ba1:	0f a0                	push   %fs
  102ba3:	06                   	push   %es
  102ba4:	1e                   	push   %ds
  102ba5:	60                   	pusha  
  102ba6:	66 b8 10 00          	mov    $0x10,%ax
  102baa:	8e d8                	mov    %eax,%ds
  102bac:	8e c0                	mov    %eax,%es
  102bae:	8e e0                	mov    %eax,%fs
  102bb0:	8e e8                	mov    %eax,%gs
  102bb2:	89 e0                	mov    %esp,%eax
  102bb4:	50                   	push   %eax

00102bb5 <isr136.1>:
  102bb5:	b8 04 3e 10 00       	mov    $0x103e04,%eax
  102bba:	ff d0                	call   *%eax
  102bbc:	e9 27 eb ff ff       	jmp    1016e8 <all_ints>

00102bc1 <isr137>:
  102bc1:	6a 00                	push   $0x0
  102bc3:	6a 89                	push   $0xffffff89
  102bc5:	0f a8                	push   %gs
  102bc7:	0f a0                	push   %fs
  102bc9:	06                   	push   %es
  102bca:	1e                   	push   %ds
  102bcb:	60                   	pusha  
  102bcc:	66 b8 10 00          	mov    $0x10,%ax
  102bd0:	8e d8                	mov    %eax,%ds
  102bd2:	8e c0                	mov    %eax,%es
  102bd4:	8e e0                	mov    %eax,%fs
  102bd6:	8e e8                	mov    %eax,%gs
  102bd8:	89 e0                	mov    %esp,%eax
  102bda:	50                   	push   %eax

00102bdb <isr137.1>:
  102bdb:	b8 04 3e 10 00       	mov    $0x103e04,%eax
  102be0:	ff d0                	call   *%eax
  102be2:	e9 01 eb ff ff       	jmp    1016e8 <all_ints>

00102be7 <isr138>:
  102be7:	6a 00                	push   $0x0
  102be9:	6a 8a                	push   $0xffffff8a
  102beb:	0f a8                	push   %gs
  102bed:	0f a0                	push   %fs
  102bef:	06                   	push   %es
  102bf0:	1e                   	push   %ds
  102bf1:	60                   	pusha  
  102bf2:	66 b8 10 00          	mov    $0x10,%ax
  102bf6:	8e d8                	mov    %eax,%ds
  102bf8:	8e c0                	mov    %eax,%es
  102bfa:	8e e0                	mov    %eax,%fs
  102bfc:	8e e8                	mov    %eax,%gs
  102bfe:	89 e0                	mov    %esp,%eax
  102c00:	50                   	push   %eax

00102c01 <isr138.1>:
  102c01:	b8 04 3e 10 00       	mov    $0x103e04,%eax
  102c06:	ff d0                	call   *%eax
  102c08:	e9 db ea ff ff       	jmp    1016e8 <all_ints>

00102c0d <isr139>:
  102c0d:	6a 00                	push   $0x0
  102c0f:	6a 8b                	push   $0xffffff8b
  102c11:	0f a8                	push   %gs
  102c13:	0f a0                	push   %fs
  102c15:	06                   	push   %es
  102c16:	1e                   	push   %ds
  102c17:	60                   	pusha  
  102c18:	66 b8 10 00          	mov    $0x10,%ax
  102c1c:	8e d8                	mov    %eax,%ds
  102c1e:	8e c0                	mov    %eax,%es
  102c20:	8e e0                	mov    %eax,%fs
  102c22:	8e e8                	mov    %eax,%gs
  102c24:	89 e0                	mov    %esp,%eax
  102c26:	50                   	push   %eax

00102c27 <isr139.1>:
  102c27:	b8 04 3e 10 00       	mov    $0x103e04,%eax
  102c2c:	ff d0                	call   *%eax
  102c2e:	e9 b5 ea ff ff       	jmp    1016e8 <all_ints>

00102c33 <isr140>:
  102c33:	6a 00                	push   $0x0
  102c35:	6a 8c                	push   $0xffffff8c
  102c37:	0f a8                	push   %gs
  102c39:	0f a0                	push   %fs
  102c3b:	06                   	push   %es
  102c3c:	1e                   	push   %ds
  102c3d:	60                   	pusha  
  102c3e:	66 b8 10 00          	mov    $0x10,%ax
  102c42:	8e d8                	mov    %eax,%ds
  102c44:	8e c0                	mov    %eax,%es
  102c46:	8e e0                	mov    %eax,%fs
  102c48:	8e e8                	mov    %eax,%gs
  102c4a:	89 e0                	mov    %esp,%eax
  102c4c:	50                   	push   %eax

00102c4d <isr140.1>:
  102c4d:	b8 04 3e 10 00       	mov    $0x103e04,%eax
  102c52:	ff d0                	call   *%eax
  102c54:	e9 8f ea ff ff       	jmp    1016e8 <all_ints>

00102c59 <isr141>:
  102c59:	6a 00                	push   $0x0
  102c5b:	6a 8d                	push   $0xffffff8d
  102c5d:	0f a8                	push   %gs
  102c5f:	0f a0                	push   %fs
  102c61:	06                   	push   %es
  102c62:	1e                   	push   %ds
  102c63:	60                   	pusha  
  102c64:	66 b8 10 00          	mov    $0x10,%ax
  102c68:	8e d8                	mov    %eax,%ds
  102c6a:	8e c0                	mov    %eax,%es
  102c6c:	8e e0                	mov    %eax,%fs
  102c6e:	8e e8                	mov    %eax,%gs
  102c70:	89 e0                	mov    %esp,%eax
  102c72:	50                   	push   %eax

00102c73 <isr141.1>:
  102c73:	b8 04 3e 10 00       	mov    $0x103e04,%eax
  102c78:	ff d0                	call   *%eax
  102c7a:	e9 69 ea ff ff       	jmp    1016e8 <all_ints>

00102c7f <isr142>:
  102c7f:	6a 00                	push   $0x0
  102c81:	6a 8e                	push   $0xffffff8e
  102c83:	0f a8                	push   %gs
  102c85:	0f a0                	push   %fs
  102c87:	06                   	push   %es
  102c88:	1e                   	push   %ds
  102c89:	60                   	pusha  
  102c8a:	66 b8 10 00          	mov    $0x10,%ax
  102c8e:	8e d8                	mov    %eax,%ds
  102c90:	8e c0                	mov    %eax,%es
  102c92:	8e e0                	mov    %eax,%fs
  102c94:	8e e8                	mov    %eax,%gs
  102c96:	89 e0                	mov    %esp,%eax
  102c98:	50                   	push   %eax

00102c99 <isr142.1>:
  102c99:	b8 04 3e 10 00       	mov    $0x103e04,%eax
  102c9e:	ff d0                	call   *%eax
  102ca0:	e9 43 ea ff ff       	jmp    1016e8 <all_ints>

00102ca5 <isr143>:
  102ca5:	6a 00                	push   $0x0
  102ca7:	6a 8f                	push   $0xffffff8f
  102ca9:	0f a8                	push   %gs
  102cab:	0f a0                	push   %fs
  102cad:	06                   	push   %es
  102cae:	1e                   	push   %ds
  102caf:	60                   	pusha  
  102cb0:	66 b8 10 00          	mov    $0x10,%ax
  102cb4:	8e d8                	mov    %eax,%ds
  102cb6:	8e c0                	mov    %eax,%es
  102cb8:	8e e0                	mov    %eax,%fs
  102cba:	8e e8                	mov    %eax,%gs
  102cbc:	89 e0                	mov    %esp,%eax
  102cbe:	50                   	push   %eax

00102cbf <isr143.1>:
  102cbf:	b8 04 3e 10 00       	mov    $0x103e04,%eax
  102cc4:	ff d0                	call   *%eax
  102cc6:	e9 1d ea ff ff       	jmp    1016e8 <all_ints>

00102ccb <isr144>:
  102ccb:	6a 00                	push   $0x0
  102ccd:	6a 90                	push   $0xffffff90
  102ccf:	0f a8                	push   %gs
  102cd1:	0f a0                	push   %fs
  102cd3:	06                   	push   %es
  102cd4:	1e                   	push   %ds
  102cd5:	60                   	pusha  
  102cd6:	66 b8 10 00          	mov    $0x10,%ax
  102cda:	8e d8                	mov    %eax,%ds
  102cdc:	8e c0                	mov    %eax,%es
  102cde:	8e e0                	mov    %eax,%fs
  102ce0:	8e e8                	mov    %eax,%gs
  102ce2:	89 e0                	mov    %esp,%eax
  102ce4:	50                   	push   %eax

00102ce5 <isr144.1>:
  102ce5:	b8 04 3e 10 00       	mov    $0x103e04,%eax
  102cea:	ff d0                	call   *%eax
  102cec:	e9 f7 e9 ff ff       	jmp    1016e8 <all_ints>

00102cf1 <isr145>:
  102cf1:	6a 00                	push   $0x0
  102cf3:	6a 91                	push   $0xffffff91
  102cf5:	0f a8                	push   %gs
  102cf7:	0f a0                	push   %fs
  102cf9:	06                   	push   %es
  102cfa:	1e                   	push   %ds
  102cfb:	60                   	pusha  
  102cfc:	66 b8 10 00          	mov    $0x10,%ax
  102d00:	8e d8                	mov    %eax,%ds
  102d02:	8e c0                	mov    %eax,%es
  102d04:	8e e0                	mov    %eax,%fs
  102d06:	8e e8                	mov    %eax,%gs
  102d08:	89 e0                	mov    %esp,%eax
  102d0a:	50                   	push   %eax

00102d0b <isr145.1>:
  102d0b:	b8 04 3e 10 00       	mov    $0x103e04,%eax
  102d10:	ff d0                	call   *%eax
  102d12:	e9 d1 e9 ff ff       	jmp    1016e8 <all_ints>

00102d17 <isr146>:
  102d17:	6a 00                	push   $0x0
  102d19:	6a 92                	push   $0xffffff92
  102d1b:	0f a8                	push   %gs
  102d1d:	0f a0                	push   %fs
  102d1f:	06                   	push   %es
  102d20:	1e                   	push   %ds
  102d21:	60                   	pusha  
  102d22:	66 b8 10 00          	mov    $0x10,%ax
  102d26:	8e d8                	mov    %eax,%ds
  102d28:	8e c0                	mov    %eax,%es
  102d2a:	8e e0                	mov    %eax,%fs
  102d2c:	8e e8                	mov    %eax,%gs
  102d2e:	89 e0                	mov    %esp,%eax
  102d30:	50                   	push   %eax

00102d31 <isr146.1>:
  102d31:	b8 04 3e 10 00       	mov    $0x103e04,%eax
  102d36:	ff d0                	call   *%eax
  102d38:	e9 ab e9 ff ff       	jmp    1016e8 <all_ints>

00102d3d <isr147>:
  102d3d:	6a 00                	push   $0x0
  102d3f:	6a 93                	push   $0xffffff93
  102d41:	0f a8                	push   %gs
  102d43:	0f a0                	push   %fs
  102d45:	06                   	push   %es
  102d46:	1e                   	push   %ds
  102d47:	60                   	pusha  
  102d48:	66 b8 10 00          	mov    $0x10,%ax
  102d4c:	8e d8                	mov    %eax,%ds
  102d4e:	8e c0                	mov    %eax,%es
  102d50:	8e e0                	mov    %eax,%fs
  102d52:	8e e8                	mov    %eax,%gs
  102d54:	89 e0                	mov    %esp,%eax
  102d56:	50                   	push   %eax

00102d57 <isr147.1>:
  102d57:	b8 04 3e 10 00       	mov    $0x103e04,%eax
  102d5c:	ff d0                	call   *%eax
  102d5e:	e9 85 e9 ff ff       	jmp    1016e8 <all_ints>

00102d63 <isr148>:
  102d63:	6a 00                	push   $0x0
  102d65:	6a 94                	push   $0xffffff94
  102d67:	0f a8                	push   %gs
  102d69:	0f a0                	push   %fs
  102d6b:	06                   	push   %es
  102d6c:	1e                   	push   %ds
  102d6d:	60                   	pusha  
  102d6e:	66 b8 10 00          	mov    $0x10,%ax
  102d72:	8e d8                	mov    %eax,%ds
  102d74:	8e c0                	mov    %eax,%es
  102d76:	8e e0                	mov    %eax,%fs
  102d78:	8e e8                	mov    %eax,%gs
  102d7a:	89 e0                	mov    %esp,%eax
  102d7c:	50                   	push   %eax

00102d7d <isr148.1>:
  102d7d:	b8 04 3e 10 00       	mov    $0x103e04,%eax
  102d82:	ff d0                	call   *%eax
  102d84:	e9 5f e9 ff ff       	jmp    1016e8 <all_ints>

00102d89 <isr149>:
  102d89:	6a 00                	push   $0x0
  102d8b:	6a 95                	push   $0xffffff95
  102d8d:	0f a8                	push   %gs
  102d8f:	0f a0                	push   %fs
  102d91:	06                   	push   %es
  102d92:	1e                   	push   %ds
  102d93:	60                   	pusha  
  102d94:	66 b8 10 00          	mov    $0x10,%ax
  102d98:	8e d8                	mov    %eax,%ds
  102d9a:	8e c0                	mov    %eax,%es
  102d9c:	8e e0                	mov    %eax,%fs
  102d9e:	8e e8                	mov    %eax,%gs
  102da0:	89 e0                	mov    %esp,%eax
  102da2:	50                   	push   %eax

00102da3 <isr149.1>:
  102da3:	b8 04 3e 10 00       	mov    $0x103e04,%eax
  102da8:	ff d0                	call   *%eax
  102daa:	e9 39 e9 ff ff       	jmp    1016e8 <all_ints>

00102daf <isr150>:
  102daf:	6a 00                	push   $0x0
  102db1:	6a 96                	push   $0xffffff96
  102db3:	0f a8                	push   %gs
  102db5:	0f a0                	push   %fs
  102db7:	06                   	push   %es
  102db8:	1e                   	push   %ds
  102db9:	60                   	pusha  
  102dba:	66 b8 10 00          	mov    $0x10,%ax
  102dbe:	8e d8                	mov    %eax,%ds
  102dc0:	8e c0                	mov    %eax,%es
  102dc2:	8e e0                	mov    %eax,%fs
  102dc4:	8e e8                	mov    %eax,%gs
  102dc6:	89 e0                	mov    %esp,%eax
  102dc8:	50                   	push   %eax

00102dc9 <isr150.1>:
  102dc9:	b8 04 3e 10 00       	mov    $0x103e04,%eax
  102dce:	ff d0                	call   *%eax
  102dd0:	e9 13 e9 ff ff       	jmp    1016e8 <all_ints>

00102dd5 <isr151>:
  102dd5:	6a 00                	push   $0x0
  102dd7:	6a 97                	push   $0xffffff97
  102dd9:	0f a8                	push   %gs
  102ddb:	0f a0                	push   %fs
  102ddd:	06                   	push   %es
  102dde:	1e                   	push   %ds
  102ddf:	60                   	pusha  
  102de0:	66 b8 10 00          	mov    $0x10,%ax
  102de4:	8e d8                	mov    %eax,%ds
  102de6:	8e c0                	mov    %eax,%es
  102de8:	8e e0                	mov    %eax,%fs
  102dea:	8e e8                	mov    %eax,%gs
  102dec:	89 e0                	mov    %esp,%eax
  102dee:	50                   	push   %eax

00102def <isr151.1>:
  102def:	b8 04 3e 10 00       	mov    $0x103e04,%eax
  102df4:	ff d0                	call   *%eax
  102df6:	e9 ed e8 ff ff       	jmp    1016e8 <all_ints>

00102dfb <isr152>:
  102dfb:	6a 00                	push   $0x0
  102dfd:	6a 98                	push   $0xffffff98
  102dff:	0f a8                	push   %gs
  102e01:	0f a0                	push   %fs
  102e03:	06                   	push   %es
  102e04:	1e                   	push   %ds
  102e05:	60                   	pusha  
  102e06:	66 b8 10 00          	mov    $0x10,%ax
  102e0a:	8e d8                	mov    %eax,%ds
  102e0c:	8e c0                	mov    %eax,%es
  102e0e:	8e e0                	mov    %eax,%fs
  102e10:	8e e8                	mov    %eax,%gs
  102e12:	89 e0                	mov    %esp,%eax
  102e14:	50                   	push   %eax

00102e15 <isr152.1>:
  102e15:	b8 04 3e 10 00       	mov    $0x103e04,%eax
  102e1a:	ff d0                	call   *%eax
  102e1c:	e9 c7 e8 ff ff       	jmp    1016e8 <all_ints>

00102e21 <isr153>:
  102e21:	6a 00                	push   $0x0
  102e23:	6a 99                	push   $0xffffff99
  102e25:	0f a8                	push   %gs
  102e27:	0f a0                	push   %fs
  102e29:	06                   	push   %es
  102e2a:	1e                   	push   %ds
  102e2b:	60                   	pusha  
  102e2c:	66 b8 10 00          	mov    $0x10,%ax
  102e30:	8e d8                	mov    %eax,%ds
  102e32:	8e c0                	mov    %eax,%es
  102e34:	8e e0                	mov    %eax,%fs
  102e36:	8e e8                	mov    %eax,%gs
  102e38:	89 e0                	mov    %esp,%eax
  102e3a:	50                   	push   %eax

00102e3b <isr153.1>:
  102e3b:	b8 04 3e 10 00       	mov    $0x103e04,%eax
  102e40:	ff d0                	call   *%eax
  102e42:	e9 a1 e8 ff ff       	jmp    1016e8 <all_ints>

00102e47 <isr154>:
  102e47:	6a 00                	push   $0x0
  102e49:	6a 9a                	push   $0xffffff9a
  102e4b:	0f a8                	push   %gs
  102e4d:	0f a0                	push   %fs
  102e4f:	06                   	push   %es
  102e50:	1e                   	push   %ds
  102e51:	60                   	pusha  
  102e52:	66 b8 10 00          	mov    $0x10,%ax
  102e56:	8e d8                	mov    %eax,%ds
  102e58:	8e c0                	mov    %eax,%es
  102e5a:	8e e0                	mov    %eax,%fs
  102e5c:	8e e8                	mov    %eax,%gs
  102e5e:	89 e0                	mov    %esp,%eax
  102e60:	50                   	push   %eax

00102e61 <isr154.1>:
  102e61:	b8 04 3e 10 00       	mov    $0x103e04,%eax
  102e66:	ff d0                	call   *%eax
  102e68:	e9 7b e8 ff ff       	jmp    1016e8 <all_ints>

00102e6d <isr155>:
  102e6d:	6a 00                	push   $0x0
  102e6f:	6a 9b                	push   $0xffffff9b
  102e71:	0f a8                	push   %gs
  102e73:	0f a0                	push   %fs
  102e75:	06                   	push   %es
  102e76:	1e                   	push   %ds
  102e77:	60                   	pusha  
  102e78:	66 b8 10 00          	mov    $0x10,%ax
  102e7c:	8e d8                	mov    %eax,%ds
  102e7e:	8e c0                	mov    %eax,%es
  102e80:	8e e0                	mov    %eax,%fs
  102e82:	8e e8                	mov    %eax,%gs
  102e84:	89 e0                	mov    %esp,%eax
  102e86:	50                   	push   %eax

00102e87 <isr155.1>:
  102e87:	b8 04 3e 10 00       	mov    $0x103e04,%eax
  102e8c:	ff d0                	call   *%eax
  102e8e:	e9 55 e8 ff ff       	jmp    1016e8 <all_ints>

00102e93 <isr156>:
  102e93:	6a 00                	push   $0x0
  102e95:	6a 9c                	push   $0xffffff9c
  102e97:	0f a8                	push   %gs
  102e99:	0f a0                	push   %fs
  102e9b:	06                   	push   %es
  102e9c:	1e                   	push   %ds
  102e9d:	60                   	pusha  
  102e9e:	66 b8 10 00          	mov    $0x10,%ax
  102ea2:	8e d8                	mov    %eax,%ds
  102ea4:	8e c0                	mov    %eax,%es
  102ea6:	8e e0                	mov    %eax,%fs
  102ea8:	8e e8                	mov    %eax,%gs
  102eaa:	89 e0                	mov    %esp,%eax
  102eac:	50                   	push   %eax

00102ead <isr156.1>:
  102ead:	b8 04 3e 10 00       	mov    $0x103e04,%eax
  102eb2:	ff d0                	call   *%eax
  102eb4:	e9 2f e8 ff ff       	jmp    1016e8 <all_ints>

00102eb9 <isr157>:
  102eb9:	6a 00                	push   $0x0
  102ebb:	6a 9d                	push   $0xffffff9d
  102ebd:	0f a8                	push   %gs
  102ebf:	0f a0                	push   %fs
  102ec1:	06                   	push   %es
  102ec2:	1e                   	push   %ds
  102ec3:	60                   	pusha  
  102ec4:	66 b8 10 00          	mov    $0x10,%ax
  102ec8:	8e d8                	mov    %eax,%ds
  102eca:	8e c0                	mov    %eax,%es
  102ecc:	8e e0                	mov    %eax,%fs
  102ece:	8e e8                	mov    %eax,%gs
  102ed0:	89 e0                	mov    %esp,%eax
  102ed2:	50                   	push   %eax

00102ed3 <isr157.1>:
  102ed3:	b8 04 3e 10 00       	mov    $0x103e04,%eax
  102ed8:	ff d0                	call   *%eax
  102eda:	e9 09 e8 ff ff       	jmp    1016e8 <all_ints>

00102edf <isr158>:
  102edf:	6a 00                	push   $0x0
  102ee1:	6a 9e                	push   $0xffffff9e
  102ee3:	0f a8                	push   %gs
  102ee5:	0f a0                	push   %fs
  102ee7:	06                   	push   %es
  102ee8:	1e                   	push   %ds
  102ee9:	60                   	pusha  
  102eea:	66 b8 10 00          	mov    $0x10,%ax
  102eee:	8e d8                	mov    %eax,%ds
  102ef0:	8e c0                	mov    %eax,%es
  102ef2:	8e e0                	mov    %eax,%fs
  102ef4:	8e e8                	mov    %eax,%gs
  102ef6:	89 e0                	mov    %esp,%eax
  102ef8:	50                   	push   %eax

00102ef9 <isr158.1>:
  102ef9:	b8 04 3e 10 00       	mov    $0x103e04,%eax
  102efe:	ff d0                	call   *%eax
  102f00:	e9 e3 e7 ff ff       	jmp    1016e8 <all_ints>

00102f05 <isr159>:
  102f05:	6a 00                	push   $0x0
  102f07:	6a 9f                	push   $0xffffff9f
  102f09:	0f a8                	push   %gs
  102f0b:	0f a0                	push   %fs
  102f0d:	06                   	push   %es
  102f0e:	1e                   	push   %ds
  102f0f:	60                   	pusha  
  102f10:	66 b8 10 00          	mov    $0x10,%ax
  102f14:	8e d8                	mov    %eax,%ds
  102f16:	8e c0                	mov    %eax,%es
  102f18:	8e e0                	mov    %eax,%fs
  102f1a:	8e e8                	mov    %eax,%gs
  102f1c:	89 e0                	mov    %esp,%eax
  102f1e:	50                   	push   %eax

00102f1f <isr159.1>:
  102f1f:	b8 04 3e 10 00       	mov    $0x103e04,%eax
  102f24:	ff d0                	call   *%eax
  102f26:	e9 bd e7 ff ff       	jmp    1016e8 <all_ints>

00102f2b <isr160>:
  102f2b:	6a 00                	push   $0x0
  102f2d:	6a a0                	push   $0xffffffa0
  102f2f:	0f a8                	push   %gs
  102f31:	0f a0                	push   %fs
  102f33:	06                   	push   %es
  102f34:	1e                   	push   %ds
  102f35:	60                   	pusha  
  102f36:	66 b8 10 00          	mov    $0x10,%ax
  102f3a:	8e d8                	mov    %eax,%ds
  102f3c:	8e c0                	mov    %eax,%es
  102f3e:	8e e0                	mov    %eax,%fs
  102f40:	8e e8                	mov    %eax,%gs
  102f42:	89 e0                	mov    %esp,%eax
  102f44:	50                   	push   %eax

00102f45 <isr160.1>:
